---
triple:          'arm64-apple-darwin'
binary-path:     '/Users/matecsapo/Programming Projects/MateBot_V2/MateBot_V2'
relocations:
  - { offsetInCU: 0x3F, offset: 0x3F, size: 0x8, addend: 0x0, symName: _Board, symObjAddr: 0x68B80, symBinAddr: 0x10001CE20, symSize: 0x0 }
  - { offsetInCU: 0xAE, offset: 0xAE, size: 0x8, addend: 0x0, symName: _MateBot_Playing_As, symObjAddr: 0x147A4, symBinAddr: 0x10001C000, symSize: 0x0 }
  - { offsetInCU: 0xC3, offset: 0xC3, size: 0x8, addend: 0x0, symName: _Move_Number, symObjAddr: 0x68C40, symBinAddr: 0x10001CEE0, symSize: 0x0 }
  - { offsetInCU: 0xDF, offset: 0xDF, size: 0x8, addend: 0x0, symName: _Num_Major_Pieces_Left, symObjAddr: 0x68C44, symBinAddr: 0x10001CEE4, symSize: 0x0 }
  - { offsetInCU: 0xF4, offset: 0xF4, size: 0x8, addend: 0x0, symName: _Moves_Played, symObjAddr: 0x68C48, symBinAddr: 0x10001CEE8, symSize: 0x0 }
  - { offsetInCU: 0x6AC4, offset: 0x6AC4, size: 0x8, addend: 0x0, symName: __ZNSt3__124__put_character_sequenceB8ue170006IcNS_11char_traitsIcEEEERNS_13basic_ostreamIT_T0_EES7_PKS4_m, symObjAddr: 0xAC2C, symBinAddr: 0x10000D988, symSize: 0x1EC }
  - { offsetInCU: 0x6DB5, offset: 0x6DB5, size: 0x8, addend: 0x0, symName: __ZNSt3__111__introsortINS_17_ClassicAlgPolicyERPFb4MoveS2_EPS2_Lb0EEEvT1_S7_T0_NS_15iterator_traitsIS7_E15difference_typeEb, symObjAddr: 0xC8D8, symBinAddr: 0x10000F634, symSize: 0x544 }
  - { offsetInCU: 0x6EE2, offset: 0x6EE2, size: 0x8, addend: 0x0, symName: __ZNSt3__126__insertion_sort_unguardedB8ue170006INS_17_ClassicAlgPolicyERPFb4MoveS2_EPS2_EEvT1_S7_T0_, symObjAddr: 0xD10C, symBinAddr: 0x10000FE68, symSize: 0x18C }
  - { offsetInCU: 0x6FD3, offset: 0x6FD3, size: 0x8, addend: 0x0, symName: __ZNSt3__111__sift_downB8ue170006INS_17_ClassicAlgPolicyERPFb4MoveS2_EPS2_EEvT1_OT0_NS_15iterator_traitsIS7_E15difference_typeES7_, symObjAddr: 0xE95C, symBinAddr: 0x1000116B8, symSize: 0x2E0 }
  - { offsetInCU: 0x7081, offset: 0x7081, size: 0x8, addend: 0x0, symName: __ZNSt3__117__floyd_sift_downB8ue170006INS_17_ClassicAlgPolicyERPFb4MoveS2_EPS2_EET1_S7_OT0_NS_15iterator_traitsIS7_E15difference_typeE, symObjAddr: 0xEDF8, symBinAddr: 0x100011B54, symSize: 0x138 }
  - { offsetInCU: 0x7119, offset: 0x7119, size: 0x8, addend: 0x0, symName: __ZNSt3__131__partition_with_equals_on_leftB8ue170006INS_17_ClassicAlgPolicyEP4MoveRPFbS2_S2_EEET0_S7_S7_T1_, symObjAddr: 0xD588, symBinAddr: 0x1000102E4, symSize: 0x33C }
  - { offsetInCU: 0x71D5, offset: 0x71D5, size: 0x8, addend: 0x0, symName: __ZNSt3__118__bitset_partitionB8ue170006INS_17_ClassicAlgPolicyEP4MoveRPFbS2_S2_EEENS_4pairIT0_bEES8_S8_T1_, symObjAddr: 0xD8C4, symBinAddr: 0x100010620, symSize: 0x404 }
  - { offsetInCU: 0x72D2, offset: 0x72D2, size: 0x8, addend: 0x0, symName: __ZNSt3__124__swap_bitmap_pos_withinB8ue170006INS_17_ClassicAlgPolicyEP4MoveEEvRT0_S5_RyS6_, symObjAddr: 0xF6BC, symBinAddr: 0x100012418, symSize: 0x1E8 }
  - { offsetInCU: 0x739F, offset: 0x739F, size: 0x8, addend: 0x0, symName: __ZNSt3__132__partition_with_equals_on_rightB8ue170006INS_17_ClassicAlgPolicyEP4MoveRPFbS2_S2_EEENS_4pairIT0_bEES8_S8_T1_, symObjAddr: 0xDCC8, symBinAddr: 0x100010A24, symSize: 0x328 }
  - { offsetInCU: 0x746C, offset: 0x746C, size: 0x8, addend: 0x0, symName: __ZNSt3__127__insertion_sort_incompleteB8ue170006INS_17_ClassicAlgPolicyERPFb4MoveS2_EPS2_EEbT1_S7_T0_, symObjAddr: 0xDFF0, symBinAddr: 0x100010D4C, symSize: 0x3A4 }
  - { offsetInCU: 0x777A, offset: 0x777A, size: 0x8, addend: 0x0, symName: __ZNSt3__17advanceB8ue170006INS_11__wrap_iterIP4MoveEEllvEEvRT_T0_, symObjAddr: 0x111F0, symBinAddr: 0x100013F4C, symSize: 0x38 }
  - { offsetInCU: 0xA458, offset: 0xA458, size: 0x8, addend: 0x0, symName: __ZNSt3__1neB8ue170006IcNS_11char_traitsIcEENS_9allocatorIcEEEEbRKNS_12basic_stringIT_T0_T1_EEPKS6_, symObjAddr: 0x940, symBinAddr: 0x10000369C, symSize: 0x34 }
  - { offsetInCU: 0xA4B0, offset: 0xA4B0, size: 0x8, addend: 0x0, symName: __ZNSt3__17getlineB8ue170006IcNS_11char_traitsIcEENS_9allocatorIcEEEERNS_13basic_istreamIT_T0_EES9_RNS_12basic_stringIS6_S7_T1_EE, symObjAddr: 0x974, symBinAddr: 0x1000036D0, symSize: 0x5C }
  - { offsetInCU: 0xA508, offset: 0xA508, size: 0x8, addend: 0x0, symName: __ZNSt3__1eqB8ue170006IcNS_11char_traitsIcEENS_9allocatorIcEEEEbRKNS_12basic_stringIT_T0_T1_EEPKS6_, symObjAddr: 0x9D0, symBinAddr: 0x10000372C, symSize: 0xAC }
  - { offsetInCU: 0xA56F, offset: 0xA56F, size: 0x8, addend: 0x0, symName: __ZNSt3__1lsB8ue170006INS_11char_traitsIcEEEERNS_13basic_ostreamIcT_EES6_PKc, symObjAddr: 0xA7C, symBinAddr: 0x1000037D8, symSize: 0x48 }
  - { offsetInCU: 0xA5B5, offset: 0xA5B5, size: 0x8, addend: 0x0, symName: __ZNSt3__1lsB8ue170006IcNS_11char_traitsIcEENS_9allocatorIcEEEERNS_13basic_ostreamIT_T0_EES9_RKNS_12basic_stringIS6_S7_T1_EE, symObjAddr: 0x1AE4, symBinAddr: 0x100004840, symSize: 0x4C }
  - { offsetInCU: 0xA60D, offset: 0xA60D, size: 0x8, addend: 0x0, symName: __ZNSt3__14sortB8ue170006INS_11__wrap_iterIP4MoveEEPFbS2_S2_EEEvT_S7_T0_, symObjAddr: 0x3BC8, symBinAddr: 0x100006924, symSize: 0x48 }
  - { offsetInCU: 0xA683, offset: 0xA683, size: 0x8, addend: 0x0, symName: __ZNSt3__13maxB8ue170006IiEERKT_S3_S3_, symObjAddr: 0x5A48, symBinAddr: 0x1000087A4, symSize: 0x2C }
  - { offsetInCU: 0xA6C6, offset: 0xA6C6, size: 0x8, addend: 0x0, symName: __ZNSt3__14endlB8ue170006IcNS_11char_traitsIcEEEERNS_13basic_ostreamIT_T0_EES7_, symObjAddr: 0x5AA0, symBinAddr: 0x1000087FC, symSize: 0x58 }
  - { offsetInCU: 0xA706, offset: 0xA706, size: 0x8, addend: 0x0, symName: __ZNSt3__13maxB8ue170006IiNS_6__lessIvvEEEERKT_S5_S5_T0_, symObjAddr: 0x9690, symBinAddr: 0x10000C3EC, symSize: 0x54 }
  - { offsetInCU: 0xA7D6, offset: 0xA7D6, size: 0x8, addend: 0x0, symName: __ZNSt3__118__constexpr_strlenB8ue170006EPKc, symObjAddr: 0x9968, symBinAddr: 0x10000C6C4, symSize: 0x24 }
  - { offsetInCU: 0xA835, offset: 0xA835, size: 0x8, addend: 0x0, symName: __ZNSt3__112__to_addressB8ue170006I4MoveEEPT_S3_, symObjAddr: 0x9F7C, symBinAddr: 0x10000CCD8, symSize: 0x14 }
  - { offsetInCU: 0xA86A, offset: 0xA86A, size: 0x8, addend: 0x0, symName: __ZNSt3__119__libcpp_deallocateB8ue170006EPvmm, symObjAddr: 0xA030, symBinAddr: 0x10000CD8C, symSize: 0x30 }
  - { offsetInCU: 0xA8B2, offset: 0xA8B2, size: 0x8, addend: 0x0, symName: __ZNSt3__127__do_deallocate_handle_sizeB8ue170006IJEEEvPvmDpT_, symObjAddr: 0xA060, symBinAddr: 0x10000CDBC, symSize: 0x28 }
  - { offsetInCU: 0xA8F0, offset: 0xA8F0, size: 0x8, addend: 0x0, symName: __ZNSt3__124__libcpp_operator_deleteB8ue170006IJPvEEEvDpT_, symObjAddr: 0xA088, symBinAddr: 0x10000CDE4, symSize: 0x24 }
  - { offsetInCU: 0xA925, offset: 0xA925, size: 0x8, addend: 0x0, symName: __ZNSt3__17getlineB8ue170006IcNS_11char_traitsIcEENS_9allocatorIcEEEERNS_13basic_istreamIT_T0_EES9_RNS_12basic_stringIS6_S7_T1_EES6_, symObjAddr: 0xA3C8, symBinAddr: 0x10000D124, symSize: 0x238 }
  - { offsetInCU: 0xABE5, offset: 0xABE5, size: 0x8, addend: 0x0, symName: __ZNSt3__19use_facetB8ue170006INS_5ctypeIcEEEERKT_RKNS_6localeE, symObjAddr: 0xABC8, symBinAddr: 0x10000D924, symSize: 0x2C }
  - { offsetInCU: 0xB0B2, offset: 0xB0B2, size: 0x8, addend: 0x0, symName: __ZNSt3__116__pad_and_outputB8ue170006IcNS_11char_traitsIcEEEENS_19ostreambuf_iteratorIT_T0_EES6_PKS4_S8_S8_RNS_8ios_baseES4_, symObjAddr: 0xAE34, symBinAddr: 0x10000DB90, symSize: 0x240 }
  - { offsetInCU: 0xB181, offset: 0xB181, size: 0x8, addend: 0x0, symName: __ZNSt3__112__to_addressB8ue170006IKcEEPT_S3_, symObjAddr: 0xB278, symBinAddr: 0x10000DFD4, symSize: 0x14 }
  - { offsetInCU: 0xB1E9, offset: 0xB1E9, size: 0x8, addend: 0x0, symName: __ZNSt3__122__make_exception_guardB8ue170006INS_6vectorI4MoveNS_9allocatorIS2_EEE16__destroy_vectorEEENS_28__exception_guard_exceptionsIT_EES8_, symObjAddr: 0xB5EC, symBinAddr: 0x10000E348, symSize: 0x40 }
  - { offsetInCU: 0xB21E, offset: 0xB21E, size: 0x8, addend: 0x0, symName: __ZNSt3__119__allocate_at_leastB8ue170006INS_9allocatorI4MoveEEEENS_19__allocation_resultINS_16allocator_traitsIT_E7pointerEEERS6_m, symObjAddr: 0xB888, symBinAddr: 0x10000E5E4, symSize: 0x40 }
  - { offsetInCU: 0xB261, offset: 0xB261, size: 0x8, addend: 0x0, symName: __ZNSt3__13minB8ue170006ImEERKT_S3_S3_, symObjAddr: 0xB9B8, symBinAddr: 0x10000E714, symSize: 0x2C }
  - { offsetInCU: 0xB4A5, offset: 0xB4A5, size: 0x8, addend: 0x0, symName: __ZNSt3__13minB8ue170006ImNS_6__lessIvvEEEERKT_S5_S5_T0_, symObjAddr: 0xBA1C, symBinAddr: 0x10000E778, symSize: 0x54 }
  - { offsetInCU: 0xB4FF, offset: 0xB4FF, size: 0x8, addend: 0x0, symName: __ZNSt3__120__throw_length_errorB8ue170006EPKc, symObjAddr: 0xBAC4, symBinAddr: 0x10000E820, symSize: 0x64 }
  - { offsetInCU: 0xB529, offset: 0xB529, size: 0x8, addend: 0x0, symName: __ZNSt3__117__libcpp_allocateB8ue170006Emm, symObjAddr: 0xBC38, symBinAddr: 0x10000E994, symSize: 0x28 }
  - { offsetInCU: 0xB566, offset: 0xB566, size: 0x8, addend: 0x0, symName: __ZNSt3__121__libcpp_operator_newB8ue170006IJmEEEPvDpT_, symObjAddr: 0xBC60, symBinAddr: 0x10000E9BC, symSize: 0x24 }
  - { offsetInCU: 0xB59F, offset: 0xB59F, size: 0x8, addend: 0x0, symName: __ZNSt3__130__uninitialized_allocator_copyB8ue170006INS_9allocatorI4MoveEEPS2_S4_S4_EET2_RT_T0_T1_S5_, symObjAddr: 0xBCF8, symBinAddr: 0x10000EA54, symSize: 0x80 }
  - { offsetInCU: 0xB63C, offset: 0xB63C, size: 0x8, addend: 0x0, symName: __ZNSt3__114__unwrap_rangeB8ue170006IP4MoveS2_EENS_4pairIT0_S4_EET_S6_, symObjAddr: 0xBDF0, symBinAddr: 0x10000EB4C, symSize: 0x60 }
  - { offsetInCU: 0xB688, offset: 0xB688, size: 0x8, addend: 0x0, symName: __ZNSt3__135__uninitialized_allocator_copy_implB8ue170006INS_9allocatorI4MoveEES2_S2_S2_LPv0EEEPT2_RT_PT0_SA_S6_, symObjAddr: 0xBE50, symBinAddr: 0x10000EBAC, symSize: 0x38 }
  - { offsetInCU: 0xB709, offset: 0xB709, size: 0x8, addend: 0x0, symName: __ZNSt3__113__unwrap_iterB8ue170006IP4MoveNS_18__unwrap_iter_implIS2_Lb1EEELi0EEEDTclsrT0_8__unwrapclsr3stdE7declvalIT_EEEES6_, symObjAddr: 0xBE88, symBinAddr: 0x10000EBE4, symSize: 0x24 }
  - { offsetInCU: 0xB74D, offset: 0xB74D, size: 0x8, addend: 0x0, symName: __ZNSt3__113__rewrap_iterB8ue170006IP4MoveS2_NS_18__unwrap_iter_implIS2_Lb1EEEEET_S5_T0_, symObjAddr: 0xBEAC, symBinAddr: 0x10000EC08, symSize: 0x3C }
  - { offsetInCU: 0xB7A2, offset: 0xB7A2, size: 0x8, addend: 0x0, symName: __ZNSt3__19make_pairB8ue170006IP4MoveS2_EENS_4pairINS_18__unwrap_ref_decayIT_E4typeENS4_IT0_E4typeEEEOS5_OS8_, symObjAddr: 0xBEE8, symBinAddr: 0x10000EC44, symSize: 0x38 }
  - { offsetInCU: 0xB923, offset: 0xB923, size: 0x8, addend: 0x0, symName: __ZNSt3__14copyB8ue170006IP4MoveS2_EET0_T_S4_S3_, symObjAddr: 0xBF90, symBinAddr: 0x10000ECEC, symSize: 0x40 }
  - { offsetInCU: 0xB97D, offset: 0xB97D, size: 0x8, addend: 0x0, symName: __ZNSt3__16__copyB8ue170006INS_17_ClassicAlgPolicyEP4MoveS3_S3_EENS_4pairIT0_T2_EES5_T1_S6_, symObjAddr: 0xBFD0, symBinAddr: 0x10000ED2C, symSize: 0x44 }
  - { offsetInCU: 0xB9E9, offset: 0xB9E9, size: 0x8, addend: 0x0, symName: __ZNSt3__123__dispatch_copy_or_moveB8ue170006INS_17_ClassicAlgPolicyENS_11__copy_loopIS1_EENS_14__copy_trivialEP4MoveS6_S6_EENS_4pairIT2_T4_EES8_T3_S9_, symObjAddr: 0xC014, symBinAddr: 0x10000ED70, symSize: 0x44 }
  - { offsetInCU: 0xBA67, offset: 0xBA67, size: 0x8, addend: 0x0, symName: __ZNSt3__121__unwrap_and_dispatchB8ue170006INS_10__overloadINS_11__copy_loopINS_17_ClassicAlgPolicyEEENS_14__copy_trivialEEEP4MoveS8_S8_Li0EEENS_4pairIT0_T2_EESA_T1_SB_, symObjAddr: 0xC058, symBinAddr: 0x10000EDB4, symSize: 0xB4 }
  - { offsetInCU: 0xBB3B, offset: 0xBB3B, size: 0x8, addend: 0x0, symName: __ZNSt3__114__rewrap_rangeB8ue170006IP4MoveS2_EET_S3_T0_, symObjAddr: 0xC154, symBinAddr: 0x10000EEB0, symSize: 0x2C }
  - { offsetInCU: 0xBB87, offset: 0xBB87, size: 0x8, addend: 0x0, symName: __ZNSt3__119__copy_trivial_implB8ue170006I4MoveS1_EENS_4pairIPT_PT0_EES4_S4_S6_, symObjAddr: 0xC180, symBinAddr: 0x10000EEDC, symSize: 0x88 }
  - { offsetInCU: 0xBBEF, offset: 0xBBEF, size: 0x8, addend: 0x0, symName: __ZNSt3__119__constexpr_memmoveB8ue170006I4MoveS1_Li0EEEPT_S3_PT0_NS_15__element_countE, symObjAddr: 0xC208, symBinAddr: 0x10000EF64, symSize: 0x68 }
  - { offsetInCU: 0xBC5D, offset: 0xBC5D, size: 0x8, addend: 0x0, symName: __ZNSt3__19make_pairB8ue170006IRP4MoveS2_EENS_4pairINS_18__unwrap_ref_decayIT_E4typeENS5_IT0_E4typeEEEOS6_OS9_, symObjAddr: 0xC270, symBinAddr: 0x10000EFCC, symSize: 0x38 }
  - { offsetInCU: 0xBCFF, offset: 0xBCFF, size: 0x8, addend: 0x0, symName: __ZNSt3__111__sort_implB8ue170006INS_17_ClassicAlgPolicyENS_11__wrap_iterIP4MoveEEPFbS3_S3_EEEvT0_S8_RT1_, symObjAddr: 0xC720, symBinAddr: 0x10000F47C, symSize: 0xA8 }
  - { offsetInCU: 0xBD62, offset: 0xBD62, size: 0x8, addend: 0x0, symName: __ZNSt3__123__debug_randomize_rangeB8ue170006INS_17_ClassicAlgPolicyENS_11__wrap_iterIP4MoveEES5_EEvT0_T1_, symObjAddr: 0xC7C8, symBinAddr: 0x10000F524, symSize: 0x14 }
  - { offsetInCU: 0xBDB3, offset: 0xBDB3, size: 0x8, addend: 0x0, symName: __ZNSt3__115__sort_dispatchB8ue170006INS_17_ClassicAlgPolicyEP4MovePFbS2_S2_EEEvT0_S6_RT1_, symObjAddr: 0xC7DC, symBinAddr: 0x10000F538, symSize: 0x64 }
  - { offsetInCU: 0xBE31, offset: 0xBE31, size: 0x8, addend: 0x0, symName: __ZNSt3__113__unwrap_iterB8ue170006INS_11__wrap_iterIP4MoveEENS_18__unwrap_iter_implIS4_Lb1EEELi0EEEDTclsrT0_8__unwrapclsr3stdE7declvalIT_EEEES8_, symObjAddr: 0xC840, symBinAddr: 0x10000F59C, symSize: 0x2C }
  - { offsetInCU: 0xBE75, offset: 0xBE75, size: 0x8, addend: 0x0, symName: __ZNSt3__135__check_strict_weak_ordering_sortedB8ue170006IP4MovePFbS1_S1_EEEvT_S5_RT0_, symObjAddr: 0xC86C, symBinAddr: 0x10000F5C8, symSize: 0x18 }
  - { offsetInCU: 0xBECB, offset: 0xBECB, size: 0x8, addend: 0x0, symName: __ZNSt3__17__log2iB8ue170006IlEET_S1_, symObjAddr: 0xC884, symBinAddr: 0x10000F5E0, symSize: 0x54 }
  - { offsetInCU: 0xBF02, offset: 0xBF02, size: 0x8, addend: 0x0, symName: __ZNSt3__112__libcpp_clzB8ue170006Em, symObjAddr: 0xCE34, symBinAddr: 0x10000FB90, symSize: 0x1C }
  - { offsetInCU: 0xC04B, offset: 0xC04B, size: 0x8, addend: 0x0, symName: __ZNSt3__124__sort3_maybe_branchlessB8ue170006INS_17_ClassicAlgPolicyERPFb4MoveS2_EPS2_EENS_9enable_ifIXntsr21__use_branchless_sortIT0_T1_EE5valueEvE4typeES9_S9_S9_S8_, symObjAddr: 0xCE84, symBinAddr: 0x10000FBE0, symSize: 0x3C }
  - { offsetInCU: 0xC0BC, offset: 0xC0BC, size: 0x8, addend: 0x0, symName: __ZNSt3__124__sort4_maybe_branchlessB8ue170006INS_17_ClassicAlgPolicyERPFb4MoveS2_EPS2_EENS_9enable_ifIXntsr21__use_branchless_sortIT0_T1_EE5valueEvE4typeES9_S9_S9_S9_S8_, symObjAddr: 0xCEC0, symBinAddr: 0x10000FC1C, symSize: 0x44 }
  - { offsetInCU: 0xC13B, offset: 0xC13B, size: 0x8, addend: 0x0, symName: __ZNSt3__124__sort5_maybe_branchlessB8ue170006INS_17_ClassicAlgPolicyERPFb4MoveS2_EPS2_EENS_9enable_ifIXntsr21__use_branchless_sortIT0_T1_EE5valueEvE4typeES9_S9_S9_S9_S9_S8_, symObjAddr: 0xCF04, symBinAddr: 0x10000FC60, symSize: 0x4C }
  - { offsetInCU: 0xC1C8, offset: 0xC1C8, size: 0x8, addend: 0x0, symName: __ZNSt3__116__insertion_sortB8ue170006INS_17_ClassicAlgPolicyERPFb4MoveS2_EPS2_EEvT1_S7_T0_, symObjAddr: 0xCF50, symBinAddr: 0x10000FCAC, symSize: 0x1BC }
  - { offsetInCU: 0xC28D, offset: 0xC28D, size: 0x8, addend: 0x0, symName: __ZNSt3__114__partial_sortB8ue170006INS_17_ClassicAlgPolicyERPFb4MoveS2_EPS2_S6_EET1_S7_S7_T2_RT0_, symObjAddr: 0xD298, symBinAddr: 0x10000FFF4, symSize: 0x94 }
  - { offsetInCU: 0xC315, offset: 0xC315, size: 0x8, addend: 0x0, symName: __ZNSt3__17__sort3B8ue170006INS_17_ClassicAlgPolicyERPFb4MoveS2_EPS2_EEjT1_S7_S7_T0_, symObjAddr: 0xD32C, symBinAddr: 0x100010088, symSize: 0x228 }
  - { offsetInCU: 0xC394, offset: 0xC394, size: 0x8, addend: 0x0, symName: __ZNSt3__19iter_swapB8ue170006IP4MoveS2_EEvT_T0_, symObjAddr: 0xE3AC, symBinAddr: 0x100011108, symSize: 0x2C }
  - { offsetInCU: 0xC3DC, offset: 0xC3DC, size: 0x8, addend: 0x0, symName: __ZNSt3__14swapB8ue170006I4MoveEENS_9enable_ifIXaasr21is_move_constructibleIT_EE5valuesr18is_move_assignableIS3_EE5valueEvE4typeERS3_S6_, symObjAddr: 0xE3D8, symBinAddr: 0x100011134, symSize: 0x54 }
  - { offsetInCU: 0xC42D, offset: 0xC42D, size: 0x8, addend: 0x0, symName: __ZNSt3__17__sort4B8ue170006INS_17_ClassicAlgPolicyERPFb4MoveS2_EPS2_EEvT1_S7_S7_S7_T0_, symObjAddr: 0xE42C, symBinAddr: 0x100011188, symSize: 0x13C }
  - { offsetInCU: 0xC4A8, offset: 0xC4A8, size: 0x8, addend: 0x0, symName: __ZNSt3__17__sort5B8ue170006INS_17_ClassicAlgPolicyERPFb4MoveS2_EPS2_EEvT1_S7_S7_S7_S7_T0_, symObjAddr: 0xE568, symBinAddr: 0x1000112C4, symSize: 0x1A0 }
  - { offsetInCU: 0xC555, offset: 0xC555, size: 0x8, addend: 0x0, symName: __ZNSt3__123__debug_randomize_rangeB8ue170006INS_17_ClassicAlgPolicyEP4MoveS3_EEvT0_T1_, symObjAddr: 0xE74C, symBinAddr: 0x1000114A8, symSize: 0x14 }
  - { offsetInCU: 0xC5A6, offset: 0xC5A6, size: 0x8, addend: 0x0, symName: __ZNSt3__119__partial_sort_implB8ue170006INS_17_ClassicAlgPolicyERPFb4MoveS2_EPS2_S6_EET1_S7_S7_T2_OT0_, symObjAddr: 0xE760, symBinAddr: 0x1000114BC, symSize: 0x13C }
  - { offsetInCU: 0xC63C, offset: 0xC63C, size: 0x8, addend: 0x0, symName: __ZNSt3__111__make_heapB8ue170006INS_17_ClassicAlgPolicyERPFb4MoveS2_EPS2_EEvT1_S7_OT0_, symObjAddr: 0xE89C, symBinAddr: 0x1000115F8, symSize: 0xC0 }
  - { offsetInCU: 0xC6DE, offset: 0xC6DE, size: 0x8, addend: 0x0, symName: __ZNSt3__111__sort_heapB8ue170006INS_17_ClassicAlgPolicyERPFb4MoveS2_EPS2_EEvT1_S7_OT0_, symObjAddr: 0xEC3C, symBinAddr: 0x100011998, symSize: 0xA8 }
  - { offsetInCU: 0xC780, offset: 0xC780, size: 0x8, addend: 0x0, symName: __ZNSt3__110__pop_heapB8ue170006INS_17_ClassicAlgPolicyEPFb4MoveS2_EPS2_EEvT1_S6_RT0_NS_15iterator_traitsIS6_E15difference_typeE, symObjAddr: 0xECE4, symBinAddr: 0x100011A40, symSize: 0x114 }
  - { offsetInCU: 0xC830, offset: 0xC830, size: 0x8, addend: 0x0, symName: __ZNSt3__19__sift_upB8ue170006INS_17_ClassicAlgPolicyERPFb4MoveS2_EPS2_EEvT1_S7_OT0_NS_15iterator_traitsIS7_E15difference_typeE, symObjAddr: 0xEF30, symBinAddr: 0x100011C8C, symSize: 0x198 }
  - { offsetInCU: 0xC8E1, offset: 0xC8E1, size: 0x8, addend: 0x0, symName: __ZNSt3__122__populate_left_bitsetB8ue170006IRPFb4MoveS1_EPS1_S1_EEvT0_T_RT1_Ry, symObjAddr: 0xF0C8, symBinAddr: 0x100011E24, symSize: 0xD4 }
  - { offsetInCU: 0xC99C, offset: 0xC99C, size: 0x8, addend: 0x0, symName: __ZNSt3__123__populate_right_bitsetB8ue170006IRPFb4MoveS1_EPS1_S1_EEvT0_T_RT1_Ry, symObjAddr: 0xF19C, symBinAddr: 0x100011EF8, symSize: 0xCC }
  - { offsetInCU: 0xCA57, offset: 0xCA57, size: 0x8, addend: 0x0, symName: __ZNSt3__117__swap_bitmap_posB8ue170006INS_17_ClassicAlgPolicyEP4MoveEEvT0_S4_RyS5_, symObjAddr: 0xF268, symBinAddr: 0x100011FC4, symSize: 0x104 }
  - { offsetInCU: 0xCAF8, offset: 0xCAF8, size: 0x8, addend: 0x0, symName: __ZNSt3__133__bitset_partition_partial_blocksB8ue170006INS_17_ClassicAlgPolicyERPFb4MoveS2_EPS2_S2_EEvRT1_S8_T0_RT2_RySC_, symObjAddr: 0xF36C, symBinAddr: 0x1000120C8, symSize: 0x350 }
  - { offsetInCU: 0xCC81, offset: 0xCC81, size: 0x8, addend: 0x0, symName: __ZNSt3__19make_pairB8ue170006IRP4MoveRbEENS_4pairINS_18__unwrap_ref_decayIT_E4typeENS6_IT0_E4typeEEEOS7_OSA_, symObjAddr: 0xF8A4, symBinAddr: 0x100012600, symSize: 0x38 }
  - { offsetInCU: 0xCCD0, offset: 0xCCD0, size: 0x8, addend: 0x0, symName: __ZNSt3__112__libcpp_ctzB8ue170006Ey, symObjAddr: 0xF8DC, symBinAddr: 0x100012638, symSize: 0x20 }
  - { offsetInCU: 0xCCFC, offset: 0xCCFC, size: 0x8, addend: 0x0, symName: __ZNSt3__113__libcpp_blsrB8ue170006Ey, symObjAddr: 0xF8FC, symBinAddr: 0x100012658, symSize: 0x2C }
  - { offsetInCU: 0xCD28, offset: 0xCD28, size: 0x8, addend: 0x0, symName: __ZNSt3__112__libcpp_clzB8ue170006Ey, symObjAddr: 0xF95C, symBinAddr: 0x1000126B8, symSize: 0x1C }
  - { offsetInCU: 0xCE7B, offset: 0xCE7B, size: 0x8, addend: 0x0, symName: __ZNSt3__112__to_addressB8ue170006INS_11__wrap_iterIP4MoveEEvEEu7__decayIDTclsr19__to_address_helperIT_EE6__callclsr3stdE7declvalIRKS5_EEEEES7_, symObjAddr: 0xFA14, symBinAddr: 0x100012770, symSize: 0x24 }
  - { offsetInCU: 0xCF56, offset: 0xCF56, size: 0x8, addend: 0x0, symName: __ZNSt3__1miB8ue170006IPK4MoveS3_EEDTmicldtfp_4baseEcldtfp0_4baseEERKNS_11__wrap_iterIT_EERKNS5_IT0_EE, symObjAddr: 0xFA94, symBinAddr: 0x1000127F0, symSize: 0x48 }
  - { offsetInCU: 0xCFA2, offset: 0xCFA2, size: 0x8, addend: 0x0, symName: __ZNSt3__14moveB8ue170006IP4MoveS2_EET0_T_S4_S3_, symObjAddr: 0xFB54, symBinAddr: 0x1000128B0, symSize: 0x40 }
  - { offsetInCU: 0xCFFC, offset: 0xCFFC, size: 0x8, addend: 0x0, symName: __ZNSt3__16__moveB8ue170006INS_17_ClassicAlgPolicyEP4MoveS3_S3_EENS_4pairIT0_T2_EES5_T1_S6_, symObjAddr: 0xFC60, symBinAddr: 0x1000129BC, symSize: 0x44 }
  - { offsetInCU: 0xD068, offset: 0xD068, size: 0x8, addend: 0x0, symName: __ZNSt3__123__dispatch_copy_or_moveB8ue170006INS_17_ClassicAlgPolicyENS_11__move_loopIS1_EENS_14__move_trivialEP4MoveS6_S6_EENS_4pairIT2_T4_EES8_T3_S9_, symObjAddr: 0xFCA4, symBinAddr: 0x100012A00, symSize: 0x44 }
  - { offsetInCU: 0xD0E6, offset: 0xD0E6, size: 0x8, addend: 0x0, symName: __ZNSt3__121__unwrap_and_dispatchB8ue170006INS_10__overloadINS_11__move_loopINS_17_ClassicAlgPolicyEEENS_14__move_trivialEEEP4MoveS8_S8_Li0EEENS_4pairIT0_T2_EESA_T1_SB_, symObjAddr: 0xFCE8, symBinAddr: 0x100012A44, symSize: 0xB4 }
  - { offsetInCU: 0xD1BA, offset: 0xD1BA, size: 0x8, addend: 0x0, symName: __ZNSt3__13maxB8ue170006ImEERKT_S3_S3_, symObjAddr: 0x101E4, symBinAddr: 0x100012F40, symSize: 0x2C }
  - { offsetInCU: 0xD1FD, offset: 0xD1FD, size: 0x8, addend: 0x0, symName: __ZNSt3__13maxB8ue170006ImNS_6__lessIvvEEEERKT_S5_S5_T0_, symObjAddr: 0x10210, symBinAddr: 0x100012F6C, symSize: 0x54 }
  - { offsetInCU: 0xD257, offset: 0xD257, size: 0x8, addend: 0x0, symName: __ZNSt3__142__uninitialized_allocator_move_if_noexceptB8ue170006INS_9allocatorI4MoveEENS_16reverse_iteratorIPS2_EES6_S2_vEET1_RT_T0_SA_S7_, symObjAddr: 0x1049C, symBinAddr: 0x1000131F8, symSize: 0x78 }
  - { offsetInCU: 0xD2D4, offset: 0xD2D4, size: 0x8, addend: 0x0, symName: __ZNSt3__14swapB8ue170006IP4MoveEENS_9enable_ifIXaasr21is_move_constructibleIT_EE5valuesr18is_move_assignableIS4_EE5valueEvE4typeERS4_S7_, symObjAddr: 0x10560, symBinAddr: 0x1000132BC, symSize: 0x3C }
  - { offsetInCU: 0xD325, offset: 0xD325, size: 0x8, addend: 0x0, symName: __ZNSt3__14moveB8ue170006INS_16reverse_iteratorIP4MoveEES4_EET0_T_S6_S5_, symObjAddr: 0x1059C, symBinAddr: 0x1000132F8, symSize: 0x78 }
  - { offsetInCU: 0xD37F, offset: 0xD37F, size: 0x8, addend: 0x0, symName: __ZNSt3__16__moveB8ue170006INS_17_ClassicAlgPolicyENS_16reverse_iteratorIP4MoveEES5_S5_EENS_4pairIT0_T2_EES7_T1_S8_, symObjAddr: 0x10614, symBinAddr: 0x100013370, symSize: 0x64 }
  - { offsetInCU: 0xD3EB, offset: 0xD3EB, size: 0x8, addend: 0x0, symName: __ZNSt3__123__dispatch_copy_or_moveB8ue170006INS_17_ClassicAlgPolicyENS_11__move_loopIS1_EENS_14__move_trivialENS_16reverse_iteratorIP4MoveEES8_S8_EENS_4pairIT2_T4_EESA_T3_SB_, symObjAddr: 0x10678, symBinAddr: 0x1000133D4, symSize: 0x64 }
  - { offsetInCU: 0xD469, offset: 0xD469, size: 0x8, addend: 0x0, symName: __ZNSt3__121__unwrap_and_dispatchB8ue170006INS_10__overloadINS_11__move_loopINS_17_ClassicAlgPolicyEEENS_14__move_trivialEEENS_16reverse_iteratorIP4MoveEESA_SA_Li0EEENS_4pairIT0_T2_EESC_T1_SD_, symObjAddr: 0x106DC, symBinAddr: 0x100013438, symSize: 0x12C }
  - { offsetInCU: 0xD4F9, offset: 0xD4F9, size: 0x8, addend: 0x0, symName: __ZNSt3__114__unwrap_rangeB8ue170006INS_16reverse_iteratorIP4MoveEES4_EENS_4pairIT0_S6_EET_S8_, symObjAddr: 0x10808, symBinAddr: 0x100013564, symSize: 0x84 }
  - { offsetInCU: 0xD66B, offset: 0xD66B, size: 0x8, addend: 0x0, symName: __ZNSt3__113__unwrap_iterB8ue170006INS_16reverse_iteratorIP4MoveEENS_18__unwrap_iter_implIS4_Lb0EEELi0EEEDTclsrT0_8__unwrapclsr3stdE7declvalIT_EEEES8_, symObjAddr: 0x10934, symBinAddr: 0x100013690, symSize: 0x44 }
  - { offsetInCU: 0xD6AF, offset: 0xD6AF, size: 0x8, addend: 0x0, symName: __ZNSt3__19make_pairB8ue170006INS_16reverse_iteratorIP4MoveEES4_EENS_4pairINS_18__unwrap_ref_decayIT_E4typeENS6_IT0_E4typeEEEOS7_OSA_, symObjAddr: 0x10978, symBinAddr: 0x1000136D4, symSize: 0x38 }
  - { offsetInCU: 0xD6FE, offset: 0xD6FE, size: 0x8, addend: 0x0, symName: __ZNSt3__114__rewrap_rangeB8ue170006INS_16reverse_iteratorIP4MoveEES4_EET_S5_T0_, symObjAddr: 0x109B0, symBinAddr: 0x10001370C, symSize: 0x5C }
  - { offsetInCU: 0xD74A, offset: 0xD74A, size: 0x8, addend: 0x0, symName: __ZNSt3__113__rewrap_iterB8ue170006INS_16reverse_iteratorIP4MoveEES4_NS_18__unwrap_iter_implIS4_Lb0EEEEET_S7_T0_, symObjAddr: 0x10A0C, symBinAddr: 0x100013768, symSize: 0x74 }
  - { offsetInCU: 0xD79F, offset: 0xD79F, size: 0x8, addend: 0x0, symName: __ZNSt3__1neB8ue170006IP4MoveS2_EEbRKNS_16reverse_iteratorIT_EERKNS3_IT0_EE, symObjAddr: 0x10A80, symBinAddr: 0x1000137DC, symSize: 0x48 }
  - { offsetInCU: 0xD833, offset: 0xD833, size: 0x8, addend: 0x0, symName: __ZNSt3__18distanceB8ue170006INS_11__wrap_iterIP4MoveEEEENS_15iterator_traitsIT_E15difference_typeES6_S6_, symObjAddr: 0x11130, symBinAddr: 0x100013E8C, symSize: 0x3C }
  - { offsetInCU: 0xD876, offset: 0xD876, size: 0x8, addend: 0x0, symName: __ZNSt3__1miB8ue170006IPK4MovePS1_EEDTmicldtfp_4baseEcldtfp0_4baseEERKNS_11__wrap_iterIT_EERKNS6_IT0_EE, symObjAddr: 0x1116C, symBinAddr: 0x100013EC8, symSize: 0x48 }
  - { offsetInCU: 0xD8C2, offset: 0xD8C2, size: 0x8, addend: 0x0, symName: __ZNSt3__14nextB8ue170006INS_11__wrap_iterIP4MoveEEEENS_9enable_ifIXsr29__has_input_iterator_categoryIT_EE5valueES6_E4typeES6_NS_15iterator_traitsIS6_E15difference_typeE, symObjAddr: 0x111B4, symBinAddr: 0x100013F10, symSize: 0x3C }
  - { offsetInCU: 0xD905, offset: 0xD905, size: 0x8, addend: 0x0, symName: __ZNSt3__14copyB8ue170006INS_11__wrap_iterIP4MoveEES3_EET0_T_S6_S5_, symObjAddr: 0x11400, symBinAddr: 0x10001415C, symSize: 0x50 }
  - { offsetInCU: 0xD95F, offset: 0xD95F, size: 0x8, addend: 0x0, symName: __ZNSt3__121__convert_to_integralB8ue170006El, symObjAddr: 0x1166C, symBinAddr: 0x1000143C8, symSize: 0x14 }
  - { offsetInCU: 0xD98B, offset: 0xD98B, size: 0x8, addend: 0x0, symName: __ZNSt3__19__advanceB8ue170006INS_11__wrap_iterIP4MoveEEEEvRT_NS_15iterator_traitsIS5_E15difference_typeENS_26random_access_iterator_tagE, symObjAddr: 0x11680, symBinAddr: 0x1000143DC, symSize: 0x2C }
  - { offsetInCU: 0xD9D4, offset: 0xD9D4, size: 0x8, addend: 0x0, symName: __ZNSt3__130__uninitialized_allocator_copyB8ue170006INS_9allocatorI4MoveEENS_11__wrap_iterIPS2_EES6_S5_EET2_RT_T0_T1_S7_, symObjAddr: 0x116AC, symBinAddr: 0x100014408, symSize: 0x90 }
  - { offsetInCU: 0xDA71, offset: 0xDA71, size: 0x8, addend: 0x0, symName: __ZNSt3__114__unwrap_rangeB8ue170006INS_11__wrap_iterIP4MoveEES3_EENS_4pairIT0_S6_EET_S8_, symObjAddr: 0x1173C, symBinAddr: 0x100014498, symSize: 0x70 }
  - { offsetInCU: 0xDABD, offset: 0xDABD, size: 0x8, addend: 0x0, symName: __ZNSt3__113move_backwardB8ue170006IP4MoveS2_EET0_T_S4_S3_, symObjAddr: 0x117E0, symBinAddr: 0x10001453C, symSize: 0x40 }
  - { offsetInCU: 0xDB17, offset: 0xDB17, size: 0x8, addend: 0x0, symName: __ZNSt3__115__move_backwardB8ue170006INS_17_ClassicAlgPolicyEP4MoveS3_S3_EENS_4pairIT0_T2_EES5_T1_S6_, symObjAddr: 0x11850, symBinAddr: 0x1000145AC, symSize: 0x44 }
  - { offsetInCU: 0xDB83, offset: 0xDB83, size: 0x8, addend: 0x0, symName: __ZNSt3__123__dispatch_copy_or_moveB8ue170006INS_17_ClassicAlgPolicyENS_20__move_backward_loopIS1_EENS_23__move_backward_trivialEP4MoveS6_S6_EENS_4pairIT2_T4_EES8_T3_S9_, symObjAddr: 0x11894, symBinAddr: 0x1000145F0, symSize: 0x44 }
  - { offsetInCU: 0xDC01, offset: 0xDC01, size: 0x8, addend: 0x0, symName: __ZNSt3__121__unwrap_and_dispatchB8ue170006INS_10__overloadINS_20__move_backward_loopINS_17_ClassicAlgPolicyEEENS_23__move_backward_trivialEEEP4MoveS8_S8_Li0EEENS_4pairIT0_T2_EESA_T1_SB_, symObjAddr: 0x118D8, symBinAddr: 0x100014634, symSize: 0xB4 }
  - { offsetInCU: 0xDCD5, offset: 0xDCD5, size: 0x8, addend: 0x0, symName: __ZNSt3__128__copy_backward_trivial_implB8ue170006I4MoveS1_EENS_4pairIPT_PT0_EES4_S4_S6_, symObjAddr: 0x119D4, symBinAddr: 0x100014730, symSize: 0x90 }
  - { offsetInCU: 0xDD3D, offset: 0xDD3D, size: 0x8, addend: 0x0, symName: __ZNSt3__19make_pairB8ue170006IRP4MoveS3_EENS_4pairINS_18__unwrap_ref_decayIT_E4typeENS5_IT0_E4typeEEEOS6_OS9_, symObjAddr: 0x11A64, symBinAddr: 0x1000147C0, symSize: 0x38 }
  - { offsetInCU: 0xDD8C, offset: 0xDD8C, size: 0x8, addend: 0x0, symName: __ZNSt3__16__copyB8ue170006INS_17_ClassicAlgPolicyENS_11__wrap_iterIP4MoveEES5_S4_EENS_4pairIT0_T2_EES7_T1_S8_, symObjAddr: 0x11B0C, symBinAddr: 0x100014868, symSize: 0x54 }
  - { offsetInCU: 0xDDF8, offset: 0xDDF8, size: 0x8, addend: 0x0, symName: __ZNSt3__123__dispatch_copy_or_moveB8ue170006INS_17_ClassicAlgPolicyENS_11__copy_loopIS1_EENS_14__copy_trivialENS_11__wrap_iterIP4MoveEES8_S7_EENS_4pairIT2_T4_EESA_T3_SB_, symObjAddr: 0x11B60, symBinAddr: 0x1000148BC, symSize: 0x54 }
  - { offsetInCU: 0xDE76, offset: 0xDE76, size: 0x8, addend: 0x0, symName: __ZNSt3__121__unwrap_and_dispatchB8ue170006INS_10__overloadINS_11__copy_loopINS_17_ClassicAlgPolicyEEENS_14__copy_trivialEEENS_11__wrap_iterIP4MoveEESA_S9_Li0EEENS_4pairIT0_T2_EESC_T1_SD_, symObjAddr: 0x11BB4, symBinAddr: 0x100014910, symSize: 0xCC }
  - { offsetInCU: 0xDF04, offset: 0xDF04, size: 0x8, addend: 0x0, symName: __ZNSt3__19make_pairB8ue170006INS_11__wrap_iterIP4MoveEES3_EENS_4pairINS_18__unwrap_ref_decayIT_E4typeENS6_IT0_E4typeEEEOS7_OSA_, symObjAddr: 0x11C80, symBinAddr: 0x1000149DC, symSize: 0x38 }
  - { offsetInCU: 0xDF53, offset: 0xDF53, size: 0x8, addend: 0x0, symName: __ZNSt3__114__rewrap_rangeB8ue170006INS_11__wrap_iterIP4MoveEES3_EET_S5_T0_, symObjAddr: 0x11CB8, symBinAddr: 0x100014A14, symSize: 0x3C }
  - { offsetInCU: 0xE073, offset: 0xE073, size: 0x8, addend: 0x0, symName: __ZNSt3__113__rewrap_iterB8ue170006INS_11__wrap_iterIP4MoveEES3_NS_18__unwrap_iter_implIS4_Lb1EEEEET_S7_T0_, symObjAddr: 0x11D64, symBinAddr: 0x100014AC0, symSize: 0x4C }
  - { offsetInCU: 0xE0C8, offset: 0xE0C8, size: 0x8, addend: 0x0, symName: __ZNSt3__142__uninitialized_allocator_move_if_noexceptB8ue170006INS_9allocatorI4MoveEEPS2_S4_S2_vEET1_RT_T0_S8_S5_, symObjAddr: 0x11F7C, symBinAddr: 0x100014CD8, symSize: 0x38 }
  - { offsetInCU: 0xE144, offset: 0xE144, size: 0x8, addend: 0x0, symName: __ZNSt3__110__distanceB8ue170006INS_11__wrap_iterIP4MoveEEEENS_15iterator_traitsIT_E15difference_typeES6_S6_NS_26random_access_iterator_tagE, symObjAddr: 0x11FB4, symBinAddr: 0x100014D10, symSize: 0x30 }
  - { offsetInCU: 0xE191, offset: 0xE191, size: 0x8, addend: 0x0, symName: __ZNSt3__1miB8ue170006IP4MoveS2_EEDTmicldtfp_4baseEcldtfp0_4baseEERKNS_11__wrap_iterIT_EERKNS4_IT0_EE, symObjAddr: 0x11FE4, symBinAddr: 0x100014D40, symSize: 0x48 }
  - { offsetInCU: 0xE210, offset: 0xE210, size: 0x8, addend: 0x0, symName: __ZNSt3__18distanceB8ue170006INS_13move_iteratorIP4MoveEEEENS_15iterator_traitsIT_E15difference_typeES6_S6_, symObjAddr: 0x12410, symBinAddr: 0x10001516C, symSize: 0x3C }
  - { offsetInCU: 0xE253, offset: 0xE253, size: 0x8, addend: 0x0, symName: __ZNSt3__110__distanceB8ue170006INS_13move_iteratorIP4MoveEEEENS_15iterator_traitsIT_E15difference_typeES6_S6_NS_26random_access_iterator_tagE, symObjAddr: 0x12484, symBinAddr: 0x1000151E0, symSize: 0x30 }
  - { offsetInCU: 0xE2A0, offset: 0xE2A0, size: 0x8, addend: 0x0, symName: __ZNSt3__1miB8ue170006IP4MoveS2_EEDTmicldtfp_4baseEcldtfp0_4baseEERKNS_13move_iteratorIT_EERKNS4_IT0_EE, symObjAddr: 0x124B4, symBinAddr: 0x100015210, symSize: 0x48 }
  - { offsetInCU: 0xE2EF, offset: 0xE2EF, size: 0x8, addend: 0x0, symName: __ZNSt3__112__to_addressB8ue170006INS_12basic_stringIcNS_11char_traitsIcEENS_9allocatorIcEEEEEEPT_S8_, symObjAddr: 0x129FC, symBinAddr: 0x100015758, symSize: 0x14 }
  - { offsetInCU: 0xE324, offset: 0xE324, size: 0x8, addend: 0x0, symName: __ZNSt3__119__allocate_at_leastB8ue170006INS_9allocatorINS_12basic_stringIcNS_11char_traitsIcEENS1_IcEEEEEEEENS_19__allocation_resultINS_16allocator_traitsIT_E7pointerEEERSA_m, symObjAddr: 0x132C4, symBinAddr: 0x100016020, symSize: 0x40 }
  - { offsetInCU: 0xE367, offset: 0xE367, size: 0x8, addend: 0x0, symName: __ZNSt3__142__uninitialized_allocator_move_if_noexceptB8ue170006INS_9allocatorINS_12basic_stringIcNS_11char_traitsIcEENS1_IcEEEEEENS_16reverse_iteratorIPS6_EESA_SA_EET2_RT_T0_T1_SB_, symObjAddr: 0x1347C, symBinAddr: 0x1000161D8, symSize: 0x12C }
  - { offsetInCU: 0xE407, offset: 0xE407, size: 0x8, addend: 0x0, symName: __ZNSt3__14swapB8ue170006IPNS_12basic_stringIcNS_11char_traitsIcEENS_9allocatorIcEEEEEENS_9enable_ifIXaasr21is_move_constructibleIT_EE5valuesr18is_move_assignableIS9_EE5valueEvE4typeERS9_SC_, symObjAddr: 0x135F4, symBinAddr: 0x100016350, symSize: 0x3C }
  - { offsetInCU: 0xE458, offset: 0xE458, size: 0x8, addend: 0x0, symName: __ZNSt3__122__make_exception_guardB8ue170006INS_29_AllocatorDestroyRangeReverseINS_9allocatorINS_12basic_stringIcNS_11char_traitsIcEENS2_IcEEEEEENS_16reverse_iteratorIPS7_EEEEEENS_28__exception_guard_exceptionsIT_EESE_, symObjAddr: 0x136F8, symBinAddr: 0x100016454, symSize: 0x4C }
  - { offsetInCU: 0xE48E, offset: 0xE48E, size: 0x8, addend: 0x0, symName: __ZNSt3__1neB8ue170006IPNS_12basic_stringIcNS_11char_traitsIcEENS_9allocatorIcEEEES7_EEbRKNS_16reverse_iteratorIT_EERKNS8_IT0_EE, symObjAddr: 0x13788, symBinAddr: 0x1000164E4, symSize: 0x48 }
  - { offsetInCU: 0xE4DA, offset: 0xE4DA, size: 0x8, addend: 0x0, symName: __ZNSt3__112__to_addressB8ue170006INS_16reverse_iteratorIPNS_12basic_stringIcNS_11char_traitsIcEENS_9allocatorIcEEEEEEvEEu7__decayIDTclsr19__to_address_helperIT_EE6__callclsr3stdE7declvalIRKSA_EEEEESC_, symObjAddr: 0x13804, symBinAddr: 0x100016560, symSize: 0x24 }
  - { offsetInCU: 0xE539, offset: 0xE539, size: 0x8, addend: 0x0, symName: __ZNSt3__119__allocator_destroyB8ue170006INS_9allocatorINS_12basic_stringIcNS_11char_traitsIcEENS1_IcEEEEEENS_16reverse_iteratorINS8_IPS6_EEEESB_EEvRT_T0_T1_, symObjAddr: 0x13B60, symBinAddr: 0x1000168BC, symSize: 0x70 }
  - { offsetInCU: 0xE59E, offset: 0xE59E, size: 0x8, addend: 0x0, symName: __ZNSt3__1neB8ue170006INS_16reverse_iteratorIPNS_12basic_stringIcNS_11char_traitsIcEENS_9allocatorIcEEEEEES9_EEbRKNS1_IT_EERKNS1_IT0_EE, symObjAddr: 0x13C0C, symBinAddr: 0x100016968, symSize: 0x60 }
  - { offsetInCU: 0xE5EA, offset: 0xE5EA, size: 0x8, addend: 0x0, symName: __ZNSt3__112__to_addressB8ue170006INS_16reverse_iteratorINS1_IPNS_12basic_stringIcNS_11char_traitsIcEENS_9allocatorIcEEEEEEEEvEEu7__decayIDTclsr19__to_address_helperIT_EE6__callclsr3stdE7declvalIRKSB_EEEEESD_, symObjAddr: 0x13C6C, symBinAddr: 0x1000169C8, symSize: 0x24 }
  - { offsetInCU: 0xEA6D, offset: 0xEA6D, size: 0x8, addend: 0x0, symName: __ZSt28__throw_bad_array_new_lengthB8ue170006v, symObjAddr: 0xBC04, symBinAddr: 0x10000E960, symSize: 0x34 }
  - { offsetInCU: 0xECF0, offset: 0xECF0, size: 0x8, addend: 0x0, symName: _Total_Time_Temp, symObjAddr: 0x68C60, symBinAddr: 0x10001CF00, symSize: 0x0 }
  - { offsetInCU: 0xED05, offset: 0xED05, size: 0x8, addend: 0x0, symName: _Search_Time, symObjAddr: 0x68C64, symBinAddr: 0x10001CF04, symSize: 0x0 }
  - { offsetInCU: 0xED1A, offset: 0xED1A, size: 0x8, addend: 0x0, symName: _Terminal_Nodes_Evaluated, symObjAddr: 0x68C68, symBinAddr: 0x10001CF08, symSize: 0x0 }
  - { offsetInCU: 0xED2F, offset: 0xED2F, size: 0x8, addend: 0x0, symName: _Pseudo_Legal_Time, symObjAddr: 0x68C6C, symBinAddr: 0x10001CF0C, symSize: 0x0 }
  - { offsetInCU: 0xED44, offset: 0xED44, size: 0x8, addend: 0x0, symName: _Legal_Time, symObjAddr: 0x68C70, symBinAddr: 0x10001CF10, symSize: 0x0 }
  - { offsetInCU: 0xED59, offset: 0xED59, size: 0x8, addend: 0x0, symName: _Move_Ordering_Time, symObjAddr: 0x68C74, symBinAddr: 0x10001CF14, symSize: 0x0 }
  - { offsetInCU: 0xED6E, offset: 0xED6E, size: 0x8, addend: 0x0, symName: _Pos_Eval_Time, symObjAddr: 0x68C78, symBinAddr: 0x10001CF18, symSize: 0x0 }
  - { offsetInCU: 0xED83, offset: 0xED83, size: 0x8, addend: 0x0, symName: _Profile_Temp_Time, symObjAddr: 0x68C7C, symBinAddr: 0x10001CF1C, symSize: 0x0 }
  - { offsetInCU: 0xED98, offset: 0xED98, size: 0x8, addend: 0x0, symName: _fout, symObjAddr: 0x68C80, symBinAddr: 0x10001CF20, symSize: 0x0 }
  - { offsetInCU: 0xF456, offset: 0xF456, size: 0x8, addend: 0x0, symName: _Pawn_Value, symObjAddr: 0x147A8, symBinAddr: 0x10001C004, symSize: 0x0 }
  - { offsetInCU: 0xF46B, offset: 0xF46B, size: 0x8, addend: 0x0, symName: _Knight_Value, symObjAddr: 0x147AC, symBinAddr: 0x10001C008, symSize: 0x0 }
  - { offsetInCU: 0xF480, offset: 0xF480, size: 0x8, addend: 0x0, symName: _Bishop_Value, symObjAddr: 0x147B0, symBinAddr: 0x10001C00C, symSize: 0x0 }
  - { offsetInCU: 0xF495, offset: 0xF495, size: 0x8, addend: 0x0, symName: _Rook_Value, symObjAddr: 0x147B4, symBinAddr: 0x10001C010, symSize: 0x0 }
  - { offsetInCU: 0xF4AA, offset: 0xF4AA, size: 0x8, addend: 0x0, symName: _Queen_Value, symObjAddr: 0x147B8, symBinAddr: 0x10001C014, symSize: 0x0 }
  - { offsetInCU: 0xF4BF, offset: 0xF4BF, size: 0x8, addend: 0x0, symName: _King_Value, symObjAddr: 0x147BC, symBinAddr: 0x10001C018, symSize: 0x0 }
  - { offsetInCU: 0xF4D4, offset: 0xF4D4, size: 0x8, addend: 0x0, symName: _W_Pawn_PSL, symObjAddr: 0x147C0, symBinAddr: 0x10001C01C, symSize: 0x0 }
  - { offsetInCU: 0xF4F5, offset: 0xF4F5, size: 0x8, addend: 0x0, symName: _W_Knight_PSL, symObjAddr: 0x148C0, symBinAddr: 0x10001C11C, symSize: 0x0 }
  - { offsetInCU: 0xF50A, offset: 0xF50A, size: 0x8, addend: 0x0, symName: _W_Bishop_PSL, symObjAddr: 0x149C0, symBinAddr: 0x10001C21C, symSize: 0x0 }
  - { offsetInCU: 0xF51F, offset: 0xF51F, size: 0x8, addend: 0x0, symName: _W_Rook_PSL, symObjAddr: 0x14AC0, symBinAddr: 0x10001C31C, symSize: 0x0 }
  - { offsetInCU: 0xF534, offset: 0xF534, size: 0x8, addend: 0x0, symName: _W_Queen_PSL, symObjAddr: 0x14BC0, symBinAddr: 0x10001C41C, symSize: 0x0 }
  - { offsetInCU: 0xF549, offset: 0xF549, size: 0x8, addend: 0x0, symName: _W_King_MiddleGame_PSL, symObjAddr: 0x14CC0, symBinAddr: 0x10001C51C, symSize: 0x0 }
  - { offsetInCU: 0xF55E, offset: 0xF55E, size: 0x8, addend: 0x0, symName: _W_King_EndGame_PSL, symObjAddr: 0x14DC0, symBinAddr: 0x10001C61C, symSize: 0x0 }
  - { offsetInCU: 0xF573, offset: 0xF573, size: 0x8, addend: 0x0, symName: _B_Pawn_PSL, symObjAddr: 0x14EC0, symBinAddr: 0x10001C71C, symSize: 0x0 }
  - { offsetInCU: 0xF588, offset: 0xF588, size: 0x8, addend: 0x0, symName: _B_Knight_PSL, symObjAddr: 0x14FC0, symBinAddr: 0x10001C81C, symSize: 0x0 }
  - { offsetInCU: 0xF59D, offset: 0xF59D, size: 0x8, addend: 0x0, symName: _B_Bishop_PSL, symObjAddr: 0x150C0, symBinAddr: 0x10001C91C, symSize: 0x0 }
  - { offsetInCU: 0xF5B2, offset: 0xF5B2, size: 0x8, addend: 0x0, symName: _B_Rook_PSL, symObjAddr: 0x151C0, symBinAddr: 0x10001CA1C, symSize: 0x0 }
  - { offsetInCU: 0xF5C7, offset: 0xF5C7, size: 0x8, addend: 0x0, symName: _B_Queen_PSL, symObjAddr: 0x152C0, symBinAddr: 0x10001CB1C, symSize: 0x0 }
  - { offsetInCU: 0xF5DC, offset: 0xF5DC, size: 0x8, addend: 0x0, symName: _B_King_MiddleGame_PSL, symObjAddr: 0x153C0, symBinAddr: 0x10001CC1C, symSize: 0x0 }
  - { offsetInCU: 0xF5F1, offset: 0xF5F1, size: 0x8, addend: 0x0, symName: _B_King_EndGame_PSL, symObjAddr: 0x154C0, symBinAddr: 0x10001CD1C, symSize: 0x0 }
  - { offsetInCU: 0xF697, offset: 0xF697, size: 0x8, addend: 0x0, symName: __ZNSt3__16vectorI4MoveNS_9allocatorIS1_EEE26__swap_out_circular_bufferERNS_14__split_bufferIS1_RS3_EE, symObjAddr: 0x100A8, symBinAddr: 0x100012E04, symSize: 0x110 }
  - { offsetInCU: 0xF6EE, offset: 0xF6EE, size: 0x8, addend: 0x0, symName: __ZNSt3__16vectorI4MoveNS_9allocatorIS1_EEE26__swap_out_circular_bufferERNS_14__split_bufferIS1_RS3_EEPS1_, symObjAddr: 0x11520, symBinAddr: 0x10001427C, symSize: 0x14C }
  - { offsetInCU: 0xF8D5, offset: 0xF8D5, size: 0x8, addend: 0x0, symName: __ZNSt3__16vectorINS_12basic_stringIcNS_11char_traitsIcEENS_9allocatorIcEEEENS4_IS6_EEE26__swap_out_circular_bufferERNS_14__split_bufferIS6_RS7_EE, symObjAddr: 0x12F54, symBinAddr: 0x100015CB0, symSize: 0x110 }
  - { offsetInCU: 0x11A7B, offset: 0x11A7B, size: 0x8, addend: 0x0, symName: __Z11Board_Setupv, symObjAddr: 0x0, symBinAddr: 0x100002D5C, symSize: 0x3D4 }
  - { offsetInCU: 0x11BCF, offset: 0x11BCF, size: 0x8, addend: 0x0, symName: __ZNSt3__112basic_stringIcNS_11char_traitsIcEENS_9allocatorIcEEEC1B8ue170006ILi0EEEPKc, symObjAddr: 0x3D4, symBinAddr: 0x100003130, symSize: 0x34 }
  - { offsetInCU: 0x11C0E, offset: 0x11C0E, size: 0x8, addend: 0x0, symName: __ZNSt3__112basic_stringIcNS_11char_traitsIcEENS_9allocatorIcEEEixB8ue170006Em, symObjAddr: 0x408, symBinAddr: 0x100003164, symSize: 0x30 }
  - { offsetInCU: 0x11C43, offset: 0x11C43, size: 0x8, addend: 0x0, symName: __ZNSt3__16vectorI4MoveNS_9allocatorIS1_EEEC1B8ue170006Ev, symObjAddr: 0x438, symBinAddr: 0x100003194, symSize: 0x2C }
  - { offsetInCU: 0x11C6D, offset: 0x11C6D, size: 0x8, addend: 0x0, symName: __ZNSt3__16vectorI4MoveNS_9allocatorIS1_EEED1B8ue170006Ev, symObjAddr: 0x464, symBinAddr: 0x1000031C0, symSize: 0x2C }
  - { offsetInCU: 0x11C97, offset: 0x11C97, size: 0x8, addend: 0x0, symName: __ZNSt3__113basic_fstreamIcNS_11char_traitsIcEEEC1Ev, symObjAddr: 0x490, symBinAddr: 0x1000031EC, symSize: 0x100 }
  - { offsetInCU: 0x11CC8, offset: 0x11CC8, size: 0x8, addend: 0x0, symName: __ZNSt3__113basic_fstreamIcNS_11char_traitsIcEEED1Ev, symObjAddr: 0x590, symBinAddr: 0x1000032EC, symSize: 0x40 }
  - { offsetInCU: 0x11CF4, offset: 0x11CF4, size: 0x8, addend: 0x0, symName: _main, symObjAddr: 0x5D0, symBinAddr: 0x10000332C, symSize: 0x2C0 }
  - { offsetInCU: 0x11D3A, offset: 0x11D3A, size: 0x8, addend: 0x0, symName: __ZNSt3__113basic_fstreamIcNS_11char_traitsIcEEE4openEPKcj, symObjAddr: 0x890, symBinAddr: 0x1000035EC, symSize: 0x84 }
  - { offsetInCU: 0x11D80, offset: 0x11D80, size: 0x8, addend: 0x0, symName: __ZNSt3__112basic_stringIcNS_11char_traitsIcEENS_9allocatorIcEEEC1B8ue170006Ev, symObjAddr: 0x914, symBinAddr: 0x100003670, symSize: 0x2C }
  - { offsetInCU: 0x11DA9, offset: 0x11DA9, size: 0x8, addend: 0x0, symName: __Z18Update_Board_StateNSt3__112basic_stringIcNS_11char_traitsIcEENS_9allocatorIcEEEE, symObjAddr: 0xAC4, symBinAddr: 0x100003820, symSize: 0x588 }
  - { offsetInCU: 0x11E27, offset: 0x11E27, size: 0x8, addend: 0x0, symName: __Z12MateBot_Moveic, symObjAddr: 0x104C, symBinAddr: 0x100003DA8, symSize: 0x7E8 }
  - { offsetInCU: 0x11EEF, offset: 0x11EEF, size: 0x8, addend: 0x0, symName: __Z20Optimal_Search_Depthv, symObjAddr: 0x1834, symBinAddr: 0x100004590, symSize: 0x2B0 }
  - { offsetInCU: 0x11F48, offset: 0x11F48, size: 0x8, addend: 0x0, symName: __Z24Convert_Move_To_UCI_Form4Move, symObjAddr: 0x1B30, symBinAddr: 0x10000488C, symSize: 0x178 }
  - { offsetInCU: 0x11F88, offset: 0x11F88, size: 0x8, addend: 0x0, symName: __ZNSt3__113basic_fstreamIcNS_11char_traitsIcEEE5closeEv, symObjAddr: 0x1CA8, symBinAddr: 0x100004A04, symSize: 0x58 }
  - { offsetInCU: 0x11FAF, offset: 0x11FAF, size: 0x8, addend: 0x0, symName: __Z14Possible_Movesc, symObjAddr: 0x1D00, symBinAddr: 0x100004A5C, symSize: 0x46C }
  - { offsetInCU: 0x1202C, offset: 0x1202C, size: 0x8, addend: 0x0, symName: __Z18Remove_Check_MovescNSt3__16vectorI4MoveNS_9allocatorIS1_EEEE, symObjAddr: 0x216C, symBinAddr: 0x100004EC8, symSize: 0x19F4 }
  - { offsetInCU: 0x1227D, offset: 0x1227D, size: 0x8, addend: 0x0, symName: __ZNSt3__16vectorI4MoveNS_9allocatorIS1_EEEC1ERKS4_, symObjAddr: 0x3B60, symBinAddr: 0x1000068BC, symSize: 0x34 }
  - { offsetInCU: 0x122B8, offset: 0x122B8, size: 0x8, addend: 0x0, symName: __ZNSt3__16vectorI4MoveNS_9allocatorIS1_EEEaSB8ue170006EOS4_, symObjAddr: 0x3B94, symBinAddr: 0x1000068F0, symSize: 0x34 }
  - { offsetInCU: 0x122EF, offset: 0x122EF, size: 0x8, addend: 0x0, symName: __ZNSt3__16vectorI4MoveNS_9allocatorIS1_EEE5beginB8ue170006Ev, symObjAddr: 0x3C10, symBinAddr: 0x10000696C, symSize: 0x30 }
  - { offsetInCU: 0x12317, offset: 0x12317, size: 0x8, addend: 0x0, symName: __ZNSt3__16vectorI4MoveNS_9allocatorIS1_EEE3endB8ue170006Ev, symObjAddr: 0x3C40, symBinAddr: 0x10000699C, symSize: 0x30 }
  - { offsetInCU: 0x1233F, offset: 0x1233F, size: 0x8, addend: 0x0, symName: __Z16Sort_Moves_By_CV4MoveS_, symObjAddr: 0x3C70, symBinAddr: 0x1000069CC, symSize: 0x498 }
  - { offsetInCU: 0x123F7, offset: 0x123F7, size: 0x8, addend: 0x0, symName: __ZNKSt3__16vectorI4MoveNS_9allocatorIS1_EEE4sizeB8ue170006Ev, symObjAddr: 0x4108, symBinAddr: 0x100006E64, symSize: 0x28 }
  - { offsetInCU: 0x1241D, offset: 0x1241D, size: 0x8, addend: 0x0, symName: __ZNSt3__16vectorI4MoveNS_9allocatorIS1_EEEixB8ue170006Em, symObjAddr: 0x4130, symBinAddr: 0x100006E8C, symSize: 0x2C }
  - { offsetInCU: 0x12454, offset: 0x12454, size: 0x8, addend: 0x0, symName: __ZNSt3__16vectorI4MoveNS_9allocatorIS1_EEE5eraseB8ue170006ENS_11__wrap_iterIPKS1_EE, symObjAddr: 0x415C, symBinAddr: 0x100006EB8, symSize: 0x9C }
  - { offsetInCU: 0x124A9, offset: 0x124A9, size: 0x8, addend: 0x0, symName: __ZNKSt3__111__wrap_iterIP4MoveEplB8ue170006El, symObjAddr: 0x41F8, symBinAddr: 0x100006F54, symSize: 0x3C }
  - { offsetInCU: 0x124F5, offset: 0x124F5, size: 0x8, addend: 0x0, symName: __ZNSt3__111__wrap_iterIPK4MoveEC1B8ue170006IPS1_EERKNS0_IT_EEPNS_9enable_ifIXsr14is_convertibleIS7_S3_EE5valueEvE4typeE, symObjAddr: 0x4234, symBinAddr: 0x100006F90, symSize: 0x3C }
  - { offsetInCU: 0x12540, offset: 0x12540, size: 0x8, addend: 0x0, symName: __Z9Make_Move4Move, symObjAddr: 0x4270, symBinAddr: 0x100006FCC, symSize: 0x25C }
  - { offsetInCU: 0x1256B, offset: 0x1256B, size: 0x8, addend: 0x0, symName: __Z7NegaMaxiciic, symObjAddr: 0x44CC, symBinAddr: 0x100007228, symSize: 0x3C0 }
  - { offsetInCU: 0x1265E, offset: 0x1265E, size: 0x8, addend: 0x0, symName: __Z11Unmake_Move4Move, symObjAddr: 0x488C, symBinAddr: 0x1000075E8, symSize: 0x180 }
  - { offsetInCU: 0x12689, offset: 0x12689, size: 0x8, addend: 0x0, symName: __Z18Search_DiagnosticsiiiNSt3__112basic_stringIcNS_11char_traitsIcEENS_9allocatorIcEEEENS_6vectorI4MoveNS3_IS7_EEEEi, symObjAddr: 0x4A0C, symBinAddr: 0x100007768, symSize: 0x2B8 }
  - { offsetInCU: 0x12716, offset: 0x12716, size: 0x8, addend: 0x0, symName: __ZNSt3__16vectorI4MoveNS_9allocatorIS1_EEE9push_backB8ue170006ERKS1_, symObjAddr: 0x4CC4, symBinAddr: 0x100007A20, symSize: 0x6C }
  - { offsetInCU: 0x1274D, offset: 0x1274D, size: 0x8, addend: 0x0, symName: __Z19Position_Evaluationc, symObjAddr: 0x4D30, symBinAddr: 0x100007A8C, symSize: 0xD18 }
  - { offsetInCU: 0x12800, offset: 0x12800, size: 0x8, addend: 0x0, symName: __ZNSt3__113basic_ostreamIcNS_11char_traitsIcEEElsB8ue170006EPFRS3_S4_E, symObjAddr: 0x5A74, symBinAddr: 0x1000087D0, symSize: 0x2C }
  - { offsetInCU: 0x12834, offset: 0x12834, size: 0x8, addend: 0x0, symName: __Z11Define_Movecciiiicc, symObjAddr: 0x5AF8, symBinAddr: 0x100008854, symSize: 0x70 }
  - { offsetInCU: 0x128DA, offset: 0x128DA, size: 0x8, addend: 0x0, symName: __Z17Queen_Legal_Movescii, symObjAddr: 0x5B68, symBinAddr: 0x1000088C4, symSize: 0x1264 }
  - { offsetInCU: 0x12D25, offset: 0x12D25, size: 0x8, addend: 0x0, symName: __Z16Rook_Legal_Movescii, symObjAddr: 0x6DCC, symBinAddr: 0x100009B28, symSize: 0x904 }
  - { offsetInCU: 0x12F50, offset: 0x12F50, size: 0x8, addend: 0x0, symName: __Z18Bishop_Legal_Movescii, symObjAddr: 0x76D0, symBinAddr: 0x10000A42C, symSize: 0xA04 }
  - { offsetInCU: 0x131BA, offset: 0x131BA, size: 0x8, addend: 0x0, symName: __Z16Pawn_Legal_Movescii, symObjAddr: 0x80D4, symBinAddr: 0x10000AE30, symSize: 0x8F8 }
  - { offsetInCU: 0x132FD, offset: 0x132FD, size: 0x8, addend: 0x0, symName: __Z18Knight_Legal_Movescii, symObjAddr: 0x89CC, symBinAddr: 0x10000B728, symSize: 0x30C }
  - { offsetInCU: 0x133A0, offset: 0x133A0, size: 0x8, addend: 0x0, symName: __Z16King_Legal_Movescii, symObjAddr: 0x8CD8, symBinAddr: 0x10000BA34, symSize: 0x29C }
  - { offsetInCU: 0x13444, offset: 0x13444, size: 0x8, addend: 0x0, symName: __ZNSt3__16vectorI4MoveNS_9allocatorIS1_EEE6insertINS_11__wrap_iterIPS1_EELi0EEES8_NS6_IPKS1_EET_SC_, symObjAddr: 0x8F74, symBinAddr: 0x10000BCD0, symSize: 0x84 }
  - { offsetInCU: 0x134A8, offset: 0x134A8, size: 0x8, addend: 0x0, symName: __ZNSt3__16vectorI4MoveNS_9allocatorIS1_EEE6insertENS_11__wrap_iterIPKS1_EERS6_, symObjAddr: 0x8FF8, symBinAddr: 0x10000BD54, symSize: 0x20C }
  - { offsetInCU: 0x1353F, offset: 0x1353F, size: 0x8, addend: 0x0, symName: __ZNSt3__16vectorINS_12basic_stringIcNS_11char_traitsIcEENS_9allocatorIcEEEENS4_IS6_EEEC1B8ue170006Ev, symObjAddr: 0x9204, symBinAddr: 0x10000BF60, symSize: 0x2C }
  - { offsetInCU: 0x13569, offset: 0x13569, size: 0x8, addend: 0x0, symName: __ZNKSt3__112basic_stringIcNS_11char_traitsIcEENS_9allocatorIcEEE6lengthB8ue170006Ev, symObjAddr: 0x9230, symBinAddr: 0x10000BF8C, symSize: 0x24 }
  - { offsetInCU: 0x1358F, offset: 0x1358F, size: 0x8, addend: 0x0, symName: __ZNSt3__16vectorINS_12basic_stringIcNS_11char_traitsIcEENS_9allocatorIcEEEENS4_IS6_EEE9push_backB8ue170006ERKS6_, symObjAddr: 0x9254, symBinAddr: 0x10000BFB0, symSize: 0x6C }
  - { offsetInCU: 0x135C6, offset: 0x135C6, size: 0x8, addend: 0x0, symName: __ZNSt3__112basic_stringIcNS_11char_traitsIcEENS_9allocatorIcEEEaSB8ue170006EPKc, symObjAddr: 0x92C0, symBinAddr: 0x10000C01C, symSize: 0x2C }
  - { offsetInCU: 0x135FB, offset: 0x135FB, size: 0x8, addend: 0x0, symName: __ZNSt3__112basic_stringIcNS_11char_traitsIcEENS_9allocatorIcEEEpLB8ue170006Ec, symObjAddr: 0x92EC, symBinAddr: 0x10000C048, symSize: 0x34 }
  - { offsetInCU: 0x13630, offset: 0x13630, size: 0x8, addend: 0x0, symName: __ZNKSt3__16vectorINS_12basic_stringIcNS_11char_traitsIcEENS_9allocatorIcEEEENS4_IS6_EEE4sizeB8ue170006Ev, symObjAddr: 0x9320, symBinAddr: 0x10000C07C, symSize: 0x28 }
  - { offsetInCU: 0x13656, offset: 0x13656, size: 0x8, addend: 0x0, symName: __ZNSt3__16vectorINS_12basic_stringIcNS_11char_traitsIcEENS_9allocatorIcEEEENS4_IS6_EEEixB8ue170006Em, symObjAddr: 0x9348, symBinAddr: 0x10000C0A4, symSize: 0x2C }
  - { offsetInCU: 0x1368C, offset: 0x1368C, size: 0x8, addend: 0x0, symName: __Z26Convert_Move_From_UCI_FormNSt3__112basic_stringIcNS_11char_traitsIcEENS_9allocatorIcEEEE, symObjAddr: 0x9374, symBinAddr: 0x10000C0D0, symSize: 0x150 }
  - { offsetInCU: 0x136CD, offset: 0x136CD, size: 0x8, addend: 0x0, symName: __ZNSt3__16vectorINS_12basic_stringIcNS_11char_traitsIcEENS_9allocatorIcEEEENS4_IS6_EEED1B8ue170006Ev, symObjAddr: 0x94C4, symBinAddr: 0x10000C220, symSize: 0x2C }
  - { offsetInCU: 0x136F7, offset: 0x136F7, size: 0x8, addend: 0x0, symName: __ZNSt3__113basic_fstreamIcNS_11char_traitsIcEEED2Ev, symObjAddr: 0x94F0, symBinAddr: 0x10000C24C, symSize: 0x6C }
  - { offsetInCU: 0x13730, offset: 0x13730, size: 0x8, addend: 0x0, symName: __ZThn16_NSt3__113basic_fstreamIcNS_11char_traitsIcEEED1Ev, symObjAddr: 0x955C, symBinAddr: 0x10000C2B8, symSize: 0x1C }
  - { offsetInCU: 0x13746, offset: 0x13746, size: 0x8, addend: 0x0, symName: __ZTv0_n24_NSt3__113basic_fstreamIcNS_11char_traitsIcEEED1Ev, symObjAddr: 0x9578, symBinAddr: 0x10000C2D4, symSize: 0x28 }
  - { offsetInCU: 0x1375C, offset: 0x1375C, size: 0x8, addend: 0x0, symName: __ZNSt3__113basic_fstreamIcNS_11char_traitsIcEEED0Ev, symObjAddr: 0x95A0, symBinAddr: 0x10000C2FC, symSize: 0x30 }
  - { offsetInCU: 0x13788, offset: 0x13788, size: 0x8, addend: 0x0, symName: __ZThn16_NSt3__113basic_fstreamIcNS_11char_traitsIcEEED0Ev, symObjAddr: 0x95D0, symBinAddr: 0x10000C32C, symSize: 0x18 }
  - { offsetInCU: 0x1379E, offset: 0x1379E, size: 0x8, addend: 0x0, symName: __ZTv0_n24_NSt3__113basic_fstreamIcNS_11char_traitsIcEEED0Ev, symObjAddr: 0x95E8, symBinAddr: 0x10000C344, symSize: 0x20 }
  - { offsetInCU: 0x137B4, offset: 0x137B4, size: 0x8, addend: 0x0, symName: __ZNSt3__111__wrap_iterIP4MoveEpLB8ue170006El, symObjAddr: 0x9608, symBinAddr: 0x10000C364, symSize: 0x30 }
  - { offsetInCU: 0x137E8, offset: 0x137E8, size: 0x8, addend: 0x0, symName: __ZNSt3__111__wrap_iterIPK4MoveEC2B8ue170006IPS1_EERKNS0_IT_EEPNS_9enable_ifIXsr14is_convertibleIS7_S3_EE5valueEvE4typeE, symObjAddr: 0x9638, symBinAddr: 0x10000C394, symSize: 0x40 }
  - { offsetInCU: 0x13833, offset: 0x13833, size: 0x8, addend: 0x0, symName: __ZNKSt3__111__wrap_iterIP4MoveE4baseB8ue170006Ev, symObjAddr: 0x9678, symBinAddr: 0x10000C3D4, symSize: 0x18 }
  - { offsetInCU: 0x13868, offset: 0x13868, size: 0x8, addend: 0x0, symName: __ZNKSt3__16__lessIvvEclB8ue170006IiiEEbRKT_RKT0_, symObjAddr: 0x96E4, symBinAddr: 0x10000C440, symSize: 0x34 }
  - { offsetInCU: 0x138BC, offset: 0x138BC, size: 0x8, addend: 0x0, symName: __ZNSt3__112basic_stringIcNS_11char_traitsIcEENS_9allocatorIcEEEC2B8ue170006Ev, symObjAddr: 0x9718, symBinAddr: 0x10000C474, symSize: 0x48 }
  - { offsetInCU: 0x138EB, offset: 0x138EB, size: 0x8, addend: 0x0, symName: __ZNSt3__117__compressed_pairINS_12basic_stringIcNS_11char_traitsIcEENS_9allocatorIcEEE5__repES5_EC1B8ue170006INS_18__default_init_tagESA_EEOT_OT0_, symObjAddr: 0x9760, symBinAddr: 0x10000C4BC, symSize: 0x3C }
  - { offsetInCU: 0x13943, offset: 0x13943, size: 0x8, addend: 0x0, symName: __ZNSt3__112basic_stringIcNS_11char_traitsIcEENS_9allocatorIcEEE14__default_initB8ue170006Ev, symObjAddr: 0x97A8, symBinAddr: 0x10000C504, symSize: 0x40 }
  - { offsetInCU: 0x13969, offset: 0x13969, size: 0x8, addend: 0x0, symName: __ZNSt3__117__compressed_pairINS_12basic_stringIcNS_11char_traitsIcEENS_9allocatorIcEEE5__repES5_EC2B8ue170006INS_18__default_init_tagESA_EEOT_OT0_, symObjAddr: 0x97E8, symBinAddr: 0x10000C544, symSize: 0x3C }
  - { offsetInCU: 0x139C1, offset: 0x139C1, size: 0x8, addend: 0x0, symName: __ZNSt3__122__compressed_pair_elemINS_12basic_stringIcNS_11char_traitsIcEENS_9allocatorIcEEE5__repELi0ELb0EEC2B8ue170006ENS_18__default_init_tagE, symObjAddr: 0x9824, symBinAddr: 0x10000C580, symSize: 0x14 }
  - { offsetInCU: 0x139F5, offset: 0x139F5, size: 0x8, addend: 0x0, symName: __ZNSt3__122__compressed_pair_elemINS_9allocatorIcEELi1ELb1EEC2B8ue170006ENS_18__default_init_tagE, symObjAddr: 0x9838, symBinAddr: 0x10000C594, symSize: 0x2C }
  - { offsetInCU: 0x13A29, offset: 0x13A29, size: 0x8, addend: 0x0, symName: __ZNSt3__19allocatorIcEC2B8ue170006Ev, symObjAddr: 0x9864, symBinAddr: 0x10000C5C0, symSize: 0x2C }
  - { offsetInCU: 0x13A53, offset: 0x13A53, size: 0x8, addend: 0x0, symName: __ZNSt3__116__non_trivial_ifILb1ENS_9allocatorIcEEEC2B8ue170006Ev, symObjAddr: 0x9890, symBinAddr: 0x10000C5EC, symSize: 0x14 }
  - { offsetInCU: 0x13A7D, offset: 0x13A7D, size: 0x8, addend: 0x0, symName: __ZNSt3__117__compressed_pairINS_12basic_stringIcNS_11char_traitsIcEENS_9allocatorIcEEE5__repES5_E5firstB8ue170006Ev, symObjAddr: 0x98A4, symBinAddr: 0x10000C600, symSize: 0x24 }
  - { offsetInCU: 0x13AA3, offset: 0x13AA3, size: 0x8, addend: 0x0, symName: __ZNSt3__122__compressed_pair_elemINS_12basic_stringIcNS_11char_traitsIcEENS_9allocatorIcEEE5__repELi0ELb0EE5__getB8ue170006Ev, symObjAddr: 0x98C8, symBinAddr: 0x10000C624, symSize: 0x14 }
  - { offsetInCU: 0x13AC9, offset: 0x13AC9, size: 0x8, addend: 0x0, symName: __ZNSt3__112basic_stringIcNS_11char_traitsIcEENS_9allocatorIcEEEC2B8ue170006ILi0EEEPKc, symObjAddr: 0x98DC, symBinAddr: 0x10000C638, symSize: 0x58 }
  - { offsetInCU: 0x13B08, offset: 0x13B08, size: 0x8, addend: 0x0, symName: __ZNSt3__111char_traitsIcE6lengthB8ue170006EPKc, symObjAddr: 0x9934, symBinAddr: 0x10000C690, symSize: 0x34 }
  - { offsetInCU: 0x13B2B, offset: 0x13B2B, size: 0x8, addend: 0x0, symName: __ZNSt3__112basic_stringIcNS_11char_traitsIcEENS_9allocatorIcEEE13__get_pointerB8ue170006Ev, symObjAddr: 0x998C, symBinAddr: 0x10000C6E8, symSize: 0x54 }
  - { offsetInCU: 0x13B51, offset: 0x13B51, size: 0x8, addend: 0x0, symName: __ZNKSt3__112basic_stringIcNS_11char_traitsIcEENS_9allocatorIcEEE9__is_longB8ue170006Ev, symObjAddr: 0x99E0, symBinAddr: 0x10000C73C, symSize: 0x38 }
  - { offsetInCU: 0x13B77, offset: 0x13B77, size: 0x8, addend: 0x0, symName: __ZNSt3__112basic_stringIcNS_11char_traitsIcEENS_9allocatorIcEEE18__get_long_pointerB8ue170006Ev, symObjAddr: 0x9A18, symBinAddr: 0x10000C774, symSize: 0x28 }
  - { offsetInCU: 0x13B9D, offset: 0x13B9D, size: 0x8, addend: 0x0, symName: __ZNSt3__112basic_stringIcNS_11char_traitsIcEENS_9allocatorIcEEE19__get_short_pointerB8ue170006Ev, symObjAddr: 0x9A40, symBinAddr: 0x10000C79C, symSize: 0x28 }
  - { offsetInCU: 0x13BC3, offset: 0x13BC3, size: 0x8, addend: 0x0, symName: __ZNKSt3__117__compressed_pairINS_12basic_stringIcNS_11char_traitsIcEENS_9allocatorIcEEE5__repES5_E5firstB8ue170006Ev, symObjAddr: 0x9A68, symBinAddr: 0x10000C7C4, symSize: 0x24 }
  - { offsetInCU: 0x13BE9, offset: 0x13BE9, size: 0x8, addend: 0x0, symName: __ZNKSt3__122__compressed_pair_elemINS_12basic_stringIcNS_11char_traitsIcEENS_9allocatorIcEEE5__repELi0ELb0EE5__getB8ue170006Ev, symObjAddr: 0x9A8C, symBinAddr: 0x10000C7E8, symSize: 0x14 }
  - { offsetInCU: 0x13C0F, offset: 0x13C0F, size: 0x8, addend: 0x0, symName: __ZNSt3__114pointer_traitsIPcE10pointer_toB8ue170006ERc, symObjAddr: 0x9AA0, symBinAddr: 0x10000C7FC, symSize: 0x14 }
  - { offsetInCU: 0x13C32, offset: 0x13C32, size: 0x8, addend: 0x0, symName: __ZNSt3__16vectorI4MoveNS_9allocatorIS1_EEEC2B8ue170006Ev, symObjAddr: 0x9AB4, symBinAddr: 0x10000C810, symSize: 0x4C }
  - { offsetInCU: 0x13C61, offset: 0x13C61, size: 0x8, addend: 0x0, symName: __ZNSt3__117__compressed_pairIP4MoveNS_9allocatorIS1_EEEC1B8ue170006IDnNS_18__default_init_tagEEEOT_OT0_, symObjAddr: 0x9B00, symBinAddr: 0x10000C85C, symSize: 0x3C }
  - { offsetInCU: 0x13CB9, offset: 0x13CB9, size: 0x8, addend: 0x0, symName: __ZNSt3__117__compressed_pairIP4MoveNS_9allocatorIS1_EEEC2B8ue170006IDnNS_18__default_init_tagEEEOT_OT0_, symObjAddr: 0x9B3C, symBinAddr: 0x10000C898, symSize: 0x40 }
  - { offsetInCU: 0x13D11, offset: 0x13D11, size: 0x8, addend: 0x0, symName: __ZNSt3__122__compressed_pair_elemIP4MoveLi0ELb0EEC2B8ue170006IDnvEEOT_, symObjAddr: 0x9B7C, symBinAddr: 0x10000C8D8, symSize: 0x1C }
  - { offsetInCU: 0x13D53, offset: 0x13D53, size: 0x8, addend: 0x0, symName: __ZNSt3__122__compressed_pair_elemINS_9allocatorI4MoveEELi1ELb1EEC2B8ue170006ENS_18__default_init_tagE, symObjAddr: 0x9B98, symBinAddr: 0x10000C8F4, symSize: 0x2C }
  - { offsetInCU: 0x13D87, offset: 0x13D87, size: 0x8, addend: 0x0, symName: __ZNSt3__19allocatorI4MoveEC2B8ue170006Ev, symObjAddr: 0x9BC4, symBinAddr: 0x10000C920, symSize: 0x2C }
  - { offsetInCU: 0x13DB1, offset: 0x13DB1, size: 0x8, addend: 0x0, symName: __ZNSt3__116__non_trivial_ifILb1ENS_9allocatorI4MoveEEEC2B8ue170006Ev, symObjAddr: 0x9BF0, symBinAddr: 0x10000C94C, symSize: 0x14 }
  - { offsetInCU: 0x13DDB, offset: 0x13DDB, size: 0x8, addend: 0x0, symName: __ZNSt3__16vectorI4MoveNS_9allocatorIS1_EEED2B8ue170006Ev, symObjAddr: 0x9C04, symBinAddr: 0x10000C960, symSize: 0x44 }
  - { offsetInCU: 0x13E05, offset: 0x13E05, size: 0x8, addend: 0x0, symName: __ZNSt3__16vectorI4MoveNS_9allocatorIS1_EEE16__destroy_vectorC1B8ue170006ERS4_, symObjAddr: 0x9C48, symBinAddr: 0x10000C9A4, symSize: 0x34 }
  - { offsetInCU: 0x13E3E, offset: 0x13E3E, size: 0x8, addend: 0x0, symName: __ZNSt3__16vectorI4MoveNS_9allocatorIS1_EEE16__destroy_vectorclB8ue170006Ev, symObjAddr: 0x9C7C, symBinAddr: 0x10000C9D8, symSize: 0x90 }
  - { offsetInCU: 0x13E64, offset: 0x13E64, size: 0x8, addend: 0x0, symName: __ZNSt3__16vectorI4MoveNS_9allocatorIS1_EEE16__destroy_vectorC2B8ue170006ERS4_, symObjAddr: 0x9D0C, symBinAddr: 0x10000CA68, symSize: 0x20 }
  - { offsetInCU: 0x13E9D, offset: 0x13E9D, size: 0x8, addend: 0x0, symName: __ZNSt3__16vectorI4MoveNS_9allocatorIS1_EEE7__clearB8ue170006Ev, symObjAddr: 0x9D2C, symBinAddr: 0x10000CA88, symSize: 0x28 }
  - { offsetInCU: 0x13EC3, offset: 0x13EC3, size: 0x8, addend: 0x0, symName: __ZNKSt3__16vectorI4MoveNS_9allocatorIS1_EEE17__annotate_deleteB8ue170006Ev, symObjAddr: 0x9D54, symBinAddr: 0x10000CAB0, symSize: 0xD4 }
  - { offsetInCU: 0x13EE9, offset: 0x13EE9, size: 0x8, addend: 0x0, symName: __ZNSt3__116allocator_traitsINS_9allocatorI4MoveEEE10deallocateB8ue170006ERS3_PS2_m, symObjAddr: 0x9E28, symBinAddr: 0x10000CB84, symSize: 0x34 }
  - { offsetInCU: 0x13F2B, offset: 0x13F2B, size: 0x8, addend: 0x0, symName: __ZNSt3__16vectorI4MoveNS_9allocatorIS1_EEE7__allocB8ue170006Ev, symObjAddr: 0x9E5C, symBinAddr: 0x10000CBB8, symSize: 0x28 }
  - { offsetInCU: 0x13F51, offset: 0x13F51, size: 0x8, addend: 0x0, symName: __ZNKSt3__16vectorI4MoveNS_9allocatorIS1_EEE8capacityB8ue170006Ev, symObjAddr: 0x9E84, symBinAddr: 0x10000CBE0, symSize: 0x40 }
  - { offsetInCU: 0x13F77, offset: 0x13F77, size: 0x8, addend: 0x0, symName: __ZNSt3__16vectorI4MoveNS_9allocatorIS1_EEE22__base_destruct_at_endB8ue170006EPS1_, symObjAddr: 0x9EC4, symBinAddr: 0x10000CC20, symSize: 0x8C }
  - { offsetInCU: 0x13FBB, offset: 0x13FBB, size: 0x8, addend: 0x0, symName: __ZNSt3__116allocator_traitsINS_9allocatorI4MoveEEE7destroyB8ue170006IS2_vEEvRS3_PT_, symObjAddr: 0x9F50, symBinAddr: 0x10000CCAC, symSize: 0x2C }
  - { offsetInCU: 0x13FF8, offset: 0x13FF8, size: 0x8, addend: 0x0, symName: __ZNSt3__19allocatorI4MoveE7destroyB8ue170006EPS1_, symObjAddr: 0x9F90, symBinAddr: 0x10000CCEC, symSize: 0x14 }
  - { offsetInCU: 0x1402C, offset: 0x1402C, size: 0x8, addend: 0x0, symName: __ZNKSt3__16vectorI4MoveNS_9allocatorIS1_EEE31__annotate_contiguous_containerB8ue170006EPKvS6_S6_S6_, symObjAddr: 0x9FA4, symBinAddr: 0x10000CD00, symSize: 0x20 }
  - { offsetInCU: 0x1407E, offset: 0x1407E, size: 0x8, addend: 0x0, symName: __ZNKSt3__16vectorI4MoveNS_9allocatorIS1_EEE4dataB8ue170006Ev, symObjAddr: 0x9FC4, symBinAddr: 0x10000CD20, symSize: 0x28 }
  - { offsetInCU: 0x140A4, offset: 0x140A4, size: 0x8, addend: 0x0, symName: __ZNSt3__19allocatorI4MoveE10deallocateB8ue170006EPS1_m, symObjAddr: 0x9FEC, symBinAddr: 0x10000CD48, symSize: 0x44 }
  - { offsetInCU: 0x140E6, offset: 0x140E6, size: 0x8, addend: 0x0, symName: __ZNSt3__117__compressed_pairIP4MoveNS_9allocatorIS1_EEE6secondB8ue170006Ev, symObjAddr: 0xA0AC, symBinAddr: 0x10000CE08, symSize: 0x24 }
  - { offsetInCU: 0x1410C, offset: 0x1410C, size: 0x8, addend: 0x0, symName: __ZNSt3__122__compressed_pair_elemINS_9allocatorI4MoveEELi1ELb1EE5__getB8ue170006Ev, symObjAddr: 0xA0D0, symBinAddr: 0x10000CE2C, symSize: 0x14 }
  - { offsetInCU: 0x14132, offset: 0x14132, size: 0x8, addend: 0x0, symName: __ZNKSt3__16vectorI4MoveNS_9allocatorIS1_EEE9__end_capB8ue170006Ev, symObjAddr: 0xA0E4, symBinAddr: 0x10000CE40, symSize: 0x28 }
  - { offsetInCU: 0x14158, offset: 0x14158, size: 0x8, addend: 0x0, symName: __ZNKSt3__117__compressed_pairIP4MoveNS_9allocatorIS1_EEE5firstB8ue170006Ev, symObjAddr: 0xA10C, symBinAddr: 0x10000CE68, symSize: 0x24 }
  - { offsetInCU: 0x1417E, offset: 0x1417E, size: 0x8, addend: 0x0, symName: __ZNKSt3__122__compressed_pair_elemIP4MoveLi0ELb0EE5__getB8ue170006Ev, symObjAddr: 0xA130, symBinAddr: 0x10000CE8C, symSize: 0x14 }
  - { offsetInCU: 0x141A4, offset: 0x141A4, size: 0x8, addend: 0x0, symName: __ZNSt3__19basic_iosIcNS_11char_traitsIcEEEC2B8ue170006Ev, symObjAddr: 0xA144, symBinAddr: 0x10000CEA0, symSize: 0x44 }
  - { offsetInCU: 0x141CE, offset: 0x141CE, size: 0x8, addend: 0x0, symName: __ZNSt3__114basic_iostreamIcNS_11char_traitsIcEEEC2B8ue170006EPNS_15basic_streambufIcS2_EE, symObjAddr: 0xA188, symBinAddr: 0x10000CEE4, symSize: 0xAC }
  - { offsetInCU: 0x14214, offset: 0x14214, size: 0x8, addend: 0x0, symName: __ZNSt3__18ios_baseC2B8ue170006Ev, symObjAddr: 0xA234, symBinAddr: 0x10000CF90, symSize: 0x24 }
  - { offsetInCU: 0x1423E, offset: 0x1423E, size: 0x8, addend: 0x0, symName: __ZNSt3__113basic_istreamIcNS_11char_traitsIcEEEC2B8ue170006EPNS_15basic_streambufIcS2_EE, symObjAddr: 0xA258, symBinAddr: 0x10000CFB4, symSize: 0x64 }
  - { offsetInCU: 0x14283, offset: 0x14283, size: 0x8, addend: 0x0, symName: __ZNSt3__113basic_ostreamIcNS_11char_traitsIcEEEC2B8ue170006Ev, symObjAddr: 0xA2BC, symBinAddr: 0x10000D018, symSize: 0x34 }
  - { offsetInCU: 0x142BA, offset: 0x142BA, size: 0x8, addend: 0x0, symName: __ZNSt3__19basic_iosIcNS_11char_traitsIcEEE4initB8ue170006EPNS_15basic_streambufIcS2_EE, symObjAddr: 0xA2F0, symBinAddr: 0x10000D04C, symSize: 0x44 }
  - { offsetInCU: 0x142F1, offset: 0x142F1, size: 0x8, addend: 0x0, symName: __ZNSt3__111char_traitsIcE3eofB8ue170006Ev, symObjAddr: 0xA334, symBinAddr: 0x10000D090, symSize: 0x8 }
  - { offsetInCU: 0x14305, offset: 0x14305, size: 0x8, addend: 0x0, symName: __ZNSt3__19basic_iosIcNS_11char_traitsIcEEE5clearB8ue170006Ej, symObjAddr: 0xA33C, symBinAddr: 0x10000D098, symSize: 0x2C }
  - { offsetInCU: 0x1433A, offset: 0x1433A, size: 0x8, addend: 0x0, symName: __ZNSt3__19basic_iosIcNS_11char_traitsIcEEE8setstateB8ue170006Ej, symObjAddr: 0xA368, symBinAddr: 0x10000D0C4, symSize: 0x2C }
  - { offsetInCU: 0x1436F, offset: 0x1436F, size: 0x8, addend: 0x0, symName: __ZNSt3__18ios_base8setstateB8ue170006Ej, symObjAddr: 0xA394, symBinAddr: 0x10000D0F0, symSize: 0x34 }
  - { offsetInCU: 0x143A6, offset: 0x143A6, size: 0x8, addend: 0x0, symName: __ZNKSt3__19basic_iosIcNS_11char_traitsIcEEE5widenB8ue170006Ec, symObjAddr: 0xA600, symBinAddr: 0x10000D35C, symSize: 0x84 }
  - { offsetInCU: 0x143FB, offset: 0x143FB, size: 0x8, addend: 0x0, symName: __ZNKSt3__113basic_istreamIcNS_11char_traitsIcEEE6sentrycvbB8ue170006Ev, symObjAddr: 0xA684, symBinAddr: 0x10000D3E0, symSize: 0x1C }
  - { offsetInCU: 0x14421, offset: 0x14421, size: 0x8, addend: 0x0, symName: __ZNSt3__112basic_stringIcNS_11char_traitsIcEENS_9allocatorIcEEE5clearB8ue170006Ev, symObjAddr: 0xA6A0, symBinAddr: 0x10000D3FC, symSize: 0x78 }
  - { offsetInCU: 0x14449, offset: 0x14449, size: 0x8, addend: 0x0, symName: __ZNKSt3__19basic_iosIcNS_11char_traitsIcEEE5rdbufB8ue170006Ev, symObjAddr: 0xA718, symBinAddr: 0x10000D474, symSize: 0x24 }
  - { offsetInCU: 0x14471, offset: 0x14471, size: 0x8, addend: 0x0, symName: __ZNSt3__115basic_streambufIcNS_11char_traitsIcEEE6sbumpcB8ue170006Ev, symObjAddr: 0xA73C, symBinAddr: 0x10000D498, symSize: 0x78 }
  - { offsetInCU: 0x14497, offset: 0x14497, size: 0x8, addend: 0x0, symName: __ZNSt3__111char_traitsIcE11eq_int_typeB8ue170006Eii, symObjAddr: 0xA7B4, symBinAddr: 0x10000D510, symSize: 0x28 }
  - { offsetInCU: 0x144CA, offset: 0x144CA, size: 0x8, addend: 0x0, symName: __ZNSt3__111char_traitsIcE12to_char_typeB8ue170006Ei, symObjAddr: 0xA7DC, symBinAddr: 0x10000D538, symSize: 0x18 }
  - { offsetInCU: 0x144ED, offset: 0x144ED, size: 0x8, addend: 0x0, symName: __ZNSt3__111char_traitsIcE2eqEcc, symObjAddr: 0xA7F4, symBinAddr: 0x10000D550, symSize: 0x28 }
  - { offsetInCU: 0x1451E, offset: 0x1451E, size: 0x8, addend: 0x0, symName: __ZNKSt3__112basic_stringIcNS_11char_traitsIcEENS_9allocatorIcEEE4sizeB8ue170006Ev, symObjAddr: 0xA81C, symBinAddr: 0x10000D578, symSize: 0x54 }
  - { offsetInCU: 0x14544, offset: 0x14544, size: 0x8, addend: 0x0, symName: __ZNKSt3__112basic_stringIcNS_11char_traitsIcEENS_9allocatorIcEEE8max_sizeB8ue170006Ev, symObjAddr: 0xA870, symBinAddr: 0x10000D5CC, symSize: 0xAC }
  - { offsetInCU: 0x14596, offset: 0x14596, size: 0x8, addend: 0x0, symName: __ZNSt3__18ios_base18__setstate_nothrowB8ue170006Ej, symObjAddr: 0xA91C, symBinAddr: 0x10000D678, symSize: 0x64 }
  - { offsetInCU: 0x145CB, offset: 0x145CB, size: 0x8, addend: 0x0, symName: __ZNKSt3__19basic_iosIcNS_11char_traitsIcEEE10exceptionsB8ue170006Ev, symObjAddr: 0xA980, symBinAddr: 0x10000D6DC, symSize: 0x24 }
  - { offsetInCU: 0x145F1, offset: 0x145F1, size: 0x8, addend: 0x0, symName: __ZNSt3__111char_traitsIcE6assignB8ue170006ERcRKc, symObjAddr: 0xA9A4, symBinAddr: 0x10000D700, symSize: 0x24 }
  - { offsetInCU: 0x14622, offset: 0x14622, size: 0x8, addend: 0x0, symName: __ZNSt3__112basic_stringIcNS_11char_traitsIcEENS_9allocatorIcEEE15__set_long_sizeB8ue170006Em, symObjAddr: 0xA9C8, symBinAddr: 0x10000D724, symSize: 0x38 }
  - { offsetInCU: 0x14657, offset: 0x14657, size: 0x8, addend: 0x0, symName: __ZNSt3__112basic_stringIcNS_11char_traitsIcEENS_9allocatorIcEEE16__set_short_sizeB8ue170006Em, symObjAddr: 0xAA00, symBinAddr: 0x10000D75C, symSize: 0x78 }
  - { offsetInCU: 0x1468C, offset: 0x1468C, size: 0x8, addend: 0x0, symName: __ZNKSt3__18ios_base5rdbufB8ue170006Ev, symObjAddr: 0xAA78, symBinAddr: 0x10000D7D4, symSize: 0x18 }
  - { offsetInCU: 0x146B2, offset: 0x146B2, size: 0x8, addend: 0x0, symName: __ZNSt3__111char_traitsIcE11to_int_typeB8ue170006Ec, symObjAddr: 0xAA90, symBinAddr: 0x10000D7EC, symSize: 0x14 }
  - { offsetInCU: 0x146D6, offset: 0x146D6, size: 0x8, addend: 0x0, symName: __ZNKSt3__112basic_stringIcNS_11char_traitsIcEENS_9allocatorIcEEE15__get_long_sizeB8ue170006Ev, symObjAddr: 0xAAA4, symBinAddr: 0x10000D800, symSize: 0x28 }
  - { offsetInCU: 0x146FC, offset: 0x146FC, size: 0x8, addend: 0x0, symName: __ZNKSt3__112basic_stringIcNS_11char_traitsIcEENS_9allocatorIcEEE16__get_short_sizeB8ue170006Ev, symObjAddr: 0xAACC, symBinAddr: 0x10000D828, symSize: 0x34 }
  - { offsetInCU: 0x1472C, offset: 0x1472C, size: 0x8, addend: 0x0, symName: __ZNSt3__116allocator_traitsINS_9allocatorIcEEE8max_sizeB8ue170006IS2_vEEmRKS2_, symObjAddr: 0xAB00, symBinAddr: 0x10000D85C, symSize: 0x24 }
  - { offsetInCU: 0x1475A, offset: 0x1475A, size: 0x8, addend: 0x0, symName: __ZNKSt3__112basic_stringIcNS_11char_traitsIcEENS_9allocatorIcEEE7__allocB8ue170006Ev, symObjAddr: 0xAB24, symBinAddr: 0x10000D880, symSize: 0x24 }
  - { offsetInCU: 0x14780, offset: 0x14780, size: 0x8, addend: 0x0, symName: __ZNSt3__114numeric_limitsImE3maxB8ue170006Ev, symObjAddr: 0xAB48, symBinAddr: 0x10000D8A4, symSize: 0x14 }
  - { offsetInCU: 0x14794, offset: 0x14794, size: 0x8, addend: 0x0, symName: __ZNKSt3__19allocatorIcE8max_sizeB8ue170006Ev, symObjAddr: 0xAB5C, symBinAddr: 0x10000D8B8, symSize: 0x14 }
  - { offsetInCU: 0x147BA, offset: 0x147BA, size: 0x8, addend: 0x0, symName: __ZNKSt3__117__compressed_pairINS_12basic_stringIcNS_11char_traitsIcEENS_9allocatorIcEEE5__repES5_E6secondB8ue170006Ev, symObjAddr: 0xAB70, symBinAddr: 0x10000D8CC, symSize: 0x24 }
  - { offsetInCU: 0x147E0, offset: 0x147E0, size: 0x8, addend: 0x0, symName: __ZNKSt3__122__compressed_pair_elemINS_9allocatorIcEELi1ELb1EE5__getB8ue170006Ev, symObjAddr: 0xAB94, symBinAddr: 0x10000D8F0, symSize: 0x14 }
  - { offsetInCU: 0x14806, offset: 0x14806, size: 0x8, addend: 0x0, symName: __ZNSt3__123__libcpp_numeric_limitsImLb1EE3maxB8ue170006Ev, symObjAddr: 0xABA8, symBinAddr: 0x10000D904, symSize: 0x8 }
  - { offsetInCU: 0x1481A, offset: 0x1481A, size: 0x8, addend: 0x0, symName: __ZNKSt3__18ios_base10exceptionsB8ue170006Ev, symObjAddr: 0xABB0, symBinAddr: 0x10000D90C, symSize: 0x18 }
  - { offsetInCU: 0x14874, offset: 0x14874, size: 0x8, addend: 0x0, symName: __ZNKSt3__15ctypeIcE5widenB8ue170006Ec, symObjAddr: 0xABF4, symBinAddr: 0x10000D950, symSize: 0x38 }
  - { offsetInCU: 0x148C7, offset: 0x148C7, size: 0x8, addend: 0x0, symName: __ZNKSt3__113basic_ostreamIcNS_11char_traitsIcEEE6sentrycvbB8ue170006Ev, symObjAddr: 0xAE18, symBinAddr: 0x10000DB74, symSize: 0x1C }
  - { offsetInCU: 0x148ED, offset: 0x148ED, size: 0x8, addend: 0x0, symName: __ZNSt3__119ostreambuf_iteratorIcNS_11char_traitsIcEEEC1B8ue170006ERNS_13basic_ostreamIcS2_EE, symObjAddr: 0xB074, symBinAddr: 0x10000DDD0, symSize: 0x34 }
  - { offsetInCU: 0x14925, offset: 0x14925, size: 0x8, addend: 0x0, symName: __ZNKSt3__18ios_base5flagsB8ue170006Ev, symObjAddr: 0xB0A8, symBinAddr: 0x10000DE04, symSize: 0x18 }
  - { offsetInCU: 0x1494D, offset: 0x1494D, size: 0x8, addend: 0x0, symName: __ZNKSt3__19basic_iosIcNS_11char_traitsIcEEE4fillB8ue170006Ev, symObjAddr: 0xB0C0, symBinAddr: 0x10000DE1C, symSize: 0x64 }
  - { offsetInCU: 0x14975, offset: 0x14975, size: 0x8, addend: 0x0, symName: __ZNKSt3__119ostreambuf_iteratorIcNS_11char_traitsIcEEE6failedB8ue170006Ev, symObjAddr: 0xB124, symBinAddr: 0x10000DE80, symSize: 0x24 }
  - { offsetInCU: 0x1499B, offset: 0x1499B, size: 0x8, addend: 0x0, symName: __ZNKSt3__18ios_base5widthB8ue170006Ev, symObjAddr: 0xB148, symBinAddr: 0x10000DEA4, symSize: 0x18 }
  - { offsetInCU: 0x149C3, offset: 0x149C3, size: 0x8, addend: 0x0, symName: __ZNSt3__115basic_streambufIcNS_11char_traitsIcEEE5sputnB8ue170006EPKcl, symObjAddr: 0xB160, symBinAddr: 0x10000DEBC, symSize: 0x3C }
  - { offsetInCU: 0x14A05, offset: 0x14A05, size: 0x8, addend: 0x0, symName: __ZNSt3__112basic_stringIcNS_11char_traitsIcEENS_9allocatorIcEEEC1B8ue170006Emc, symObjAddr: 0xB19C, symBinAddr: 0x10000DEF8, symSize: 0x3C }
  - { offsetInCU: 0x14A4D, offset: 0x14A4D, size: 0x8, addend: 0x0, symName: __ZNKSt3__112basic_stringIcNS_11char_traitsIcEENS_9allocatorIcEEE4dataB8ue170006Ev, symObjAddr: 0xB1D8, symBinAddr: 0x10000DF34, symSize: 0x28 }
  - { offsetInCU: 0x14A73, offset: 0x14A73, size: 0x8, addend: 0x0, symName: __ZNSt3__18ios_base5widthB8ue170006El, symObjAddr: 0xB200, symBinAddr: 0x10000DF5C, symSize: 0x2C }
  - { offsetInCU: 0x14AB9, offset: 0x14AB9, size: 0x8, addend: 0x0, symName: __ZNSt3__112basic_stringIcNS_11char_traitsIcEENS_9allocatorIcEEEC2B8ue170006Emc, symObjAddr: 0xB22C, symBinAddr: 0x10000DF88, symSize: 0x4C }
  - { offsetInCU: 0x14B01, offset: 0x14B01, size: 0x8, addend: 0x0, symName: __ZNKSt3__112basic_stringIcNS_11char_traitsIcEENS_9allocatorIcEEE13__get_pointerB8ue170006Ev, symObjAddr: 0xB28C, symBinAddr: 0x10000DFE8, symSize: 0x54 }
  - { offsetInCU: 0x14B27, offset: 0x14B27, size: 0x8, addend: 0x0, symName: __ZNKSt3__112basic_stringIcNS_11char_traitsIcEENS_9allocatorIcEEE18__get_long_pointerB8ue170006Ev, symObjAddr: 0xB2E0, symBinAddr: 0x10000E03C, symSize: 0x28 }
  - { offsetInCU: 0x14B4D, offset: 0x14B4D, size: 0x8, addend: 0x0, symName: __ZNKSt3__112basic_stringIcNS_11char_traitsIcEENS_9allocatorIcEEE19__get_short_pointerB8ue170006Ev, symObjAddr: 0xB308, symBinAddr: 0x10000E064, symSize: 0x28 }
  - { offsetInCU: 0x14B73, offset: 0x14B73, size: 0x8, addend: 0x0, symName: __ZNSt3__114pointer_traitsIPKcE10pointer_toB8ue170006ERS1_, symObjAddr: 0xB330, symBinAddr: 0x10000E08C, symSize: 0x14 }
  - { offsetInCU: 0x14B96, offset: 0x14B96, size: 0x8, addend: 0x0, symName: __ZNSt3__119ostreambuf_iteratorIcNS_11char_traitsIcEEEC2B8ue170006ERNS_13basic_ostreamIcS2_EE, symObjAddr: 0xB344, symBinAddr: 0x10000E0A0, symSize: 0x54 }
  - { offsetInCU: 0x14BCE, offset: 0x14BCE, size: 0x8, addend: 0x0, symName: __ZNSt3__16vectorI4MoveNS_9allocatorIS1_EEEC2ERKS4_, symObjAddr: 0xB398, symBinAddr: 0x10000E0F4, symSize: 0x94 }
  - { offsetInCU: 0x14C13, offset: 0x14C13, size: 0x8, addend: 0x0, symName: __ZNSt3__116allocator_traitsINS_9allocatorI4MoveEEE37select_on_container_copy_constructionB8ue170006IS3_vvEES3_RKS3_, symObjAddr: 0xB42C, symBinAddr: 0x10000E188, symSize: 0x10 }
  - { offsetInCU: 0x14C42, offset: 0x14C42, size: 0x8, addend: 0x0, symName: __ZNKSt3__16vectorI4MoveNS_9allocatorIS1_EEE7__allocB8ue170006Ev, symObjAddr: 0xB43C, symBinAddr: 0x10000E198, symSize: 0x28 }
  - { offsetInCU: 0x14C6D, offset: 0x14C6D, size: 0x8, addend: 0x0, symName: __ZNSt3__117__compressed_pairIP4MoveNS_9allocatorIS1_EEEC1B8ue170006IDnS4_EEOT_OT0_, symObjAddr: 0xB464, symBinAddr: 0x10000E1C0, symSize: 0x3C }
  - { offsetInCU: 0x14CC5, offset: 0x14CC5, size: 0x8, addend: 0x0, symName: __ZNSt3__16vectorI4MoveNS_9allocatorIS1_EEE16__init_with_sizeB8ue170006IPS1_S6_EEvT_T0_m, symObjAddr: 0xB4A0, symBinAddr: 0x10000E1FC, symSize: 0xB8 }
  - { offsetInCU: 0x14D39, offset: 0x14D39, size: 0x8, addend: 0x0, symName: __ZNKSt3__117__compressed_pairIP4MoveNS_9allocatorIS1_EEE6secondB8ue170006Ev, symObjAddr: 0xB558, symBinAddr: 0x10000E2B4, symSize: 0x24 }
  - { offsetInCU: 0x14D5F, offset: 0x14D5F, size: 0x8, addend: 0x0, symName: __ZNKSt3__122__compressed_pair_elemINS_9allocatorI4MoveEELi1ELb1EE5__getB8ue170006Ev, symObjAddr: 0xB57C, symBinAddr: 0x10000E2D8, symSize: 0x14 }
  - { offsetInCU: 0x14D85, offset: 0x14D85, size: 0x8, addend: 0x0, symName: __ZNSt3__117__compressed_pairIP4MoveNS_9allocatorIS1_EEEC2B8ue170006IDnS4_EEOT_OT0_, symObjAddr: 0xB590, symBinAddr: 0x10000E2EC, symSize: 0x44 }
  - { offsetInCU: 0x14DDD, offset: 0x14DDD, size: 0x8, addend: 0x0, symName: __ZNSt3__122__compressed_pair_elemINS_9allocatorI4MoveEELi1ELb1EEC2B8ue170006IS3_vEEOT_, symObjAddr: 0xB5D4, symBinAddr: 0x10000E330, symSize: 0x18 }
  - { offsetInCU: 0x14E1F, offset: 0x14E1F, size: 0x8, addend: 0x0, symName: __ZNSt3__16vectorI4MoveNS_9allocatorIS1_EEE11__vallocateB8ue170006Em, symObjAddr: 0xB62C, symBinAddr: 0x10000E388, symSize: 0xB4 }
  - { offsetInCU: 0x14E63, offset: 0x14E63, size: 0x8, addend: 0x0, symName: __ZNSt3__16vectorI4MoveNS_9allocatorIS1_EEE18__construct_at_endIPS1_S6_EEvT_T0_m, symObjAddr: 0xB6E0, symBinAddr: 0x10000E43C, symSize: 0x8C }
  - { offsetInCU: 0x14ED9, offset: 0x14ED9, size: 0x8, addend: 0x0, symName: __ZNSt3__128__exception_guard_exceptionsINS_6vectorI4MoveNS_9allocatorIS2_EEE16__destroy_vectorEE10__completeB8ue170006Ev, symObjAddr: 0xB76C, symBinAddr: 0x10000E4C8, symSize: 0x1C }
  - { offsetInCU: 0x14EFF, offset: 0x14EFF, size: 0x8, addend: 0x0, symName: __ZNSt3__128__exception_guard_exceptionsINS_6vectorI4MoveNS_9allocatorIS2_EEE16__destroy_vectorEED1B8ue170006Ev, symObjAddr: 0xB788, symBinAddr: 0x10000E4E4, symSize: 0x2C }
  - { offsetInCU: 0x14F29, offset: 0x14F29, size: 0x8, addend: 0x0, symName: __ZNSt3__128__exception_guard_exceptionsINS_6vectorI4MoveNS_9allocatorIS2_EEE16__destroy_vectorEEC1B8ue170006ES6_, symObjAddr: 0xB7B4, symBinAddr: 0x10000E510, symSize: 0x34 }
  - { offsetInCU: 0x14F61, offset: 0x14F61, size: 0x8, addend: 0x0, symName: __ZNSt3__128__exception_guard_exceptionsINS_6vectorI4MoveNS_9allocatorIS2_EEE16__destroy_vectorEEC2B8ue170006ES6_, symObjAddr: 0xB7E8, symBinAddr: 0x10000E544, symSize: 0x24 }
  - { offsetInCU: 0x14F99, offset: 0x14F99, size: 0x8, addend: 0x0, symName: __ZNKSt3__16vectorI4MoveNS_9allocatorIS1_EEE8max_sizeEv, symObjAddr: 0xB80C, symBinAddr: 0x10000E568, symSize: 0x60 }
  - { offsetInCU: 0x14FC1, offset: 0x14FC1, size: 0x8, addend: 0x0, symName: __ZNKSt3__16vectorI4MoveNS_9allocatorIS1_EEE20__throw_length_errorB8ue170006Ev, symObjAddr: 0xB86C, symBinAddr: 0x10000E5C8, symSize: 0x1C }
  - { offsetInCU: 0x14FE7, offset: 0x14FE7, size: 0x8, addend: 0x0, symName: __ZNSt3__16vectorI4MoveNS_9allocatorIS1_EEE9__end_capB8ue170006Ev, symObjAddr: 0xB8C8, symBinAddr: 0x10000E624, symSize: 0x28 }
  - { offsetInCU: 0x1500D, offset: 0x1500D, size: 0x8, addend: 0x0, symName: __ZNKSt3__16vectorI4MoveNS_9allocatorIS1_EEE14__annotate_newB8ue170006Em, symObjAddr: 0xB8F0, symBinAddr: 0x10000E64C, symSize: 0xC8 }
  - { offsetInCU: 0x15042, offset: 0x15042, size: 0x8, addend: 0x0, symName: __ZNSt3__116allocator_traitsINS_9allocatorI4MoveEEE8max_sizeB8ue170006IS3_vEEmRKS3_, symObjAddr: 0xB9E4, symBinAddr: 0x10000E740, symSize: 0x24 }
  - { offsetInCU: 0x15070, offset: 0x15070, size: 0x8, addend: 0x0, symName: __ZNSt3__114numeric_limitsIlE3maxB8ue170006Ev, symObjAddr: 0xBA08, symBinAddr: 0x10000E764, symSize: 0x14 }
  - { offsetInCU: 0x1508E, offset: 0x1508E, size: 0x8, addend: 0x0, symName: __ZNKSt3__16__lessIvvEclB8ue170006ImmEEbRKT_RKT0_, symObjAddr: 0xBA70, symBinAddr: 0x10000E7CC, symSize: 0x34 }
  - { offsetInCU: 0x150E2, offset: 0x150E2, size: 0x8, addend: 0x0, symName: __ZNKSt3__19allocatorI4MoveE8max_sizeB8ue170006Ev, symObjAddr: 0xBAA4, symBinAddr: 0x10000E800, symSize: 0x18 }
  - { offsetInCU: 0x15108, offset: 0x15108, size: 0x8, addend: 0x0, symName: __ZNSt3__123__libcpp_numeric_limitsIlLb1EE3maxB8ue170006Ev, symObjAddr: 0xBABC, symBinAddr: 0x10000E818, symSize: 0x8 }
  - { offsetInCU: 0x1511C, offset: 0x1511C, size: 0x8, addend: 0x0, symName: __ZNSt12length_errorC1B8ue170006EPKc, symObjAddr: 0xBB28, symBinAddr: 0x10000E884, symSize: 0x34 }
  - { offsetInCU: 0x15154, offset: 0x15154, size: 0x8, addend: 0x0, symName: __ZNSt12length_errorC2B8ue170006EPKc, symObjAddr: 0xBB5C, symBinAddr: 0x10000E8B8, symSize: 0x4C }
  - { offsetInCU: 0x1518C, offset: 0x1518C, size: 0x8, addend: 0x0, symName: __ZNSt3__19allocatorI4MoveE8allocateB8ue170006Em, symObjAddr: 0xBBA8, symBinAddr: 0x10000E904, symSize: 0x5C }
  - { offsetInCU: 0x151C0, offset: 0x151C0, size: 0x8, addend: 0x0, symName: __ZNSt3__117__compressed_pairIP4MoveNS_9allocatorIS1_EEE5firstB8ue170006Ev, symObjAddr: 0xBC84, symBinAddr: 0x10000E9E0, symSize: 0x24 }
  - { offsetInCU: 0x151E6, offset: 0x151E6, size: 0x8, addend: 0x0, symName: __ZNSt3__122__compressed_pair_elemIP4MoveLi0ELb0EE5__getB8ue170006Ev, symObjAddr: 0xBCA8, symBinAddr: 0x10000EA04, symSize: 0x14 }
  - { offsetInCU: 0x15225, offset: 0x15225, size: 0x8, addend: 0x0, symName: __ZNSt3__16vectorI4MoveNS_9allocatorIS1_EEE21_ConstructTransactionC1B8ue170006ERS4_m, symObjAddr: 0xBCBC, symBinAddr: 0x10000EA18, symSize: 0x3C }
  - { offsetInCU: 0x1526D, offset: 0x1526D, size: 0x8, addend: 0x0, symName: __ZNSt3__16vectorI4MoveNS_9allocatorIS1_EEE21_ConstructTransactionD1B8ue170006Ev, symObjAddr: 0xBD78, symBinAddr: 0x10000EAD4, symSize: 0x2C }
  - { offsetInCU: 0x15297, offset: 0x15297, size: 0x8, addend: 0x0, symName: __ZNSt3__16vectorI4MoveNS_9allocatorIS1_EEE21_ConstructTransactionC2B8ue170006ERS4_m, symObjAddr: 0xBDA4, symBinAddr: 0x10000EB00, symSize: 0x4C }
  - { offsetInCU: 0x152FD, offset: 0x152FD, size: 0x8, addend: 0x0, symName: __ZNSt3__14pairIP4MoveS2_EC1B8ue170006IS2_S2_LPv0EEEOT_OT0_, symObjAddr: 0xBF20, symBinAddr: 0x10000EC7C, symSize: 0x3C }
  - { offsetInCU: 0x1535B, offset: 0x1535B, size: 0x8, addend: 0x0, symName: __ZNSt3__14pairIP4MoveS2_EC2B8ue170006IS2_S2_LPv0EEEOT_OT0_, symObjAddr: 0xBF5C, symBinAddr: 0x10000ECB8, symSize: 0x34 }
  - { offsetInCU: 0x153C3, offset: 0x153C3, size: 0x8, addend: 0x0, symName: __ZNKSt3__114__copy_trivialclB8ue170006I4MoveS2_Li0EEENS_4pairIPT_PT0_EES5_S5_S7_, symObjAddr: 0xC10C, symBinAddr: 0x10000EE68, symSize: 0x48 }
  - { offsetInCU: 0x1542B, offset: 0x1542B, size: 0x8, addend: 0x0, symName: __ZNSt3__14pairIP4MoveS2_EC1B8ue170006IRS2_S2_LPv0EEEOT_OT0_, symObjAddr: 0xC2A8, symBinAddr: 0x10000F004, symSize: 0x3C }
  - { offsetInCU: 0x15489, offset: 0x15489, size: 0x8, addend: 0x0, symName: __ZNSt3__14pairIP4MoveS2_EC2B8ue170006IRS2_S2_LPv0EEEOT_OT0_, symObjAddr: 0xC2E4, symBinAddr: 0x10000F040, symSize: 0x34 }
  - { offsetInCU: 0x154E7, offset: 0x154E7, size: 0x8, addend: 0x0, symName: __ZNSt3__118__unwrap_iter_implIP4MoveLb1EE8__unwrapB8ue170006ES2_, symObjAddr: 0xC318, symBinAddr: 0x10000F074, symSize: 0x24 }
  - { offsetInCU: 0x1550A, offset: 0x1550A, size: 0x8, addend: 0x0, symName: __ZNSt3__118__unwrap_iter_implIP4MoveLb1EE8__rewrapB8ue170006ES2_S2_, symObjAddr: 0xC33C, symBinAddr: 0x10000F098, symSize: 0x58 }
  - { offsetInCU: 0x1553B, offset: 0x1553B, size: 0x8, addend: 0x0, symName: __ZNSt3__16vectorI4MoveNS_9allocatorIS1_EEE21_ConstructTransactionD2B8ue170006Ev, symObjAddr: 0xC394, symBinAddr: 0x10000F0F0, symSize: 0x20 }
  - { offsetInCU: 0x15565, offset: 0x15565, size: 0x8, addend: 0x0, symName: __ZNSt3__128__exception_guard_exceptionsINS_6vectorI4MoveNS_9allocatorIS2_EEE16__destroy_vectorEED2B8ue170006Ev, symObjAddr: 0xC3B4, symBinAddr: 0x10000F110, symSize: 0x48 }
  - { offsetInCU: 0x1558F, offset: 0x1558F, size: 0x8, addend: 0x0, symName: __ZNSt3__16vectorI4MoveNS_9allocatorIS1_EEE13__move_assignERS4_NS_17integral_constantIbLb1EEE, symObjAddr: 0xC3FC, symBinAddr: 0x10000F158, symSize: 0x94 }
  - { offsetInCU: 0x155D1, offset: 0x155D1, size: 0x8, addend: 0x0, symName: __ZNSt3__16vectorI4MoveNS_9allocatorIS1_EEE13__vdeallocateEv, symObjAddr: 0xC490, symBinAddr: 0x10000F1EC, symSize: 0x94 }
  - { offsetInCU: 0x155F9, offset: 0x155F9, size: 0x8, addend: 0x0, symName: __ZNSt3__16vectorI4MoveNS_9allocatorIS1_EEE19__move_assign_allocB8ue170006ERS4_, symObjAddr: 0xC524, symBinAddr: 0x10000F280, symSize: 0x2C }
  - { offsetInCU: 0x1562E, offset: 0x1562E, size: 0x8, addend: 0x0, symName: __ZNSt3__16vectorI4MoveNS_9allocatorIS1_EEE5clearB8ue170006Ev, symObjAddr: 0xC550, symBinAddr: 0x10000F2AC, symSize: 0x44 }
  - { offsetInCU: 0x15663, offset: 0x15663, size: 0x8, addend: 0x0, symName: __ZNKSt3__16vectorI4MoveNS_9allocatorIS1_EEE17__annotate_shrinkB8ue170006Em, symObjAddr: 0xC594, symBinAddr: 0x10000F2F0, symSize: 0xD0 }
  - { offsetInCU: 0x15698, offset: 0x15698, size: 0x8, addend: 0x0, symName: __ZNSt3__16vectorI4MoveNS_9allocatorIS1_EEE19__move_assign_allocB8ue170006ERS4_NS_17integral_constantIbLb1EEE, symObjAddr: 0xC664, symBinAddr: 0x10000F3C0, symSize: 0x38 }
  - { offsetInCU: 0x156D8, offset: 0x156D8, size: 0x8, addend: 0x0, symName: __ZNSt3__16vectorI4MoveNS_9allocatorIS1_EEE11__make_iterB8ue170006EPS1_, symObjAddr: 0xC69C, symBinAddr: 0x10000F3F8, symSize: 0x30 }
  - { offsetInCU: 0x1570D, offset: 0x1570D, size: 0x8, addend: 0x0, symName: __ZNSt3__111__wrap_iterIP4MoveEC1B8ue170006ES2_, symObjAddr: 0xC6CC, symBinAddr: 0x10000F428, symSize: 0x34 }
  - { offsetInCU: 0x15745, offset: 0x15745, size: 0x8, addend: 0x0, symName: __ZNSt3__111__wrap_iterIP4MoveEC2B8ue170006ES2_, symObjAddr: 0xC700, symBinAddr: 0x10000F45C, symSize: 0x20 }
  - { offsetInCU: 0x1577D, offset: 0x1577D, size: 0x8, addend: 0x0, symName: __ZNSt3__18_IterOpsINS_17_ClassicAlgPolicyEE9iter_swapB8ue170006IRP4MoveS6_EEvOT_OT0_, symObjAddr: 0xCE50, symBinAddr: 0x10000FBAC, symSize: 0x34 }
  - { offsetInCU: 0x157C0, offset: 0x157C0, size: 0x8, addend: 0x0, symName: __ZNSt3__18_IterOpsINS_17_ClassicAlgPolicyEE9iter_swapB8ue170006IRP4MoveS5_EEvOT_OT0_, symObjAddr: 0xD554, symBinAddr: 0x1000102B0, symSize: 0x34 }
  - { offsetInCU: 0x15803, offset: 0x15803, size: 0x8, addend: 0x0, symName: __ZNSt3__18_IterOpsINS_17_ClassicAlgPolicyEE11__iter_moveB8ue170006IRP4MoveEENS_9enable_ifIXsr12is_referenceIDTdeclsr3stdE7declvalIRT_EEEEE5valueEDTclsr3stdE4movedeclsr3stdE7declvalIS9_EEEEE4typeEOS8_, symObjAddr: 0xE708, symBinAddr: 0x100011464, symSize: 0x28 }
  - { offsetInCU: 0x1582F, offset: 0x1582F, size: 0x8, addend: 0x0, symName: __ZNSt3__18_IterOpsINS_17_ClassicAlgPolicyEE25__validate_iter_referenceB8ue170006IRP4MoveEEvv, symObjAddr: 0xE730, symBinAddr: 0x10001148C, symSize: 0x4 }
  - { offsetInCU: 0x1584D, offset: 0x1584D, size: 0x8, addend: 0x0, symName: __ZNSt3__18_IterOpsINS_17_ClassicAlgPolicyEE4nextB8ue170006IP4MoveEET_S6_S6_, symObjAddr: 0xE734, symBinAddr: 0x100011490, symSize: 0x18 }
  - { offsetInCU: 0x15883, offset: 0x15883, size: 0x8, addend: 0x0, symName: __ZNSt3__18_IterOpsINS_17_ClassicAlgPolicyEE9iter_swapB8ue170006IP4MoveS5_EEvOT_OT0_, symObjAddr: 0xF928, symBinAddr: 0x100012684, symSize: 0x34 }
  - { offsetInCU: 0x158DF, offset: 0x158DF, size: 0x8, addend: 0x0, symName: __ZNSt3__14pairIP4MovebEC1B8ue170006IRS2_RbLPv0EEEOT_OT0_, symObjAddr: 0xF978, symBinAddr: 0x1000126D4, symSize: 0x3C }
  - { offsetInCU: 0x1593D, offset: 0x1593D, size: 0x8, addend: 0x0, symName: __ZNSt3__14pairIP4MovebEC2B8ue170006IRS2_RbLPv0EEEOT_OT0_, symObjAddr: 0xF9B4, symBinAddr: 0x100012710, symSize: 0x38 }
  - { offsetInCU: 0x1599B, offset: 0x1599B, size: 0x8, addend: 0x0, symName: __ZNSt3__118__unwrap_iter_implINS_11__wrap_iterIP4MoveEELb1EE8__unwrapB8ue170006ES4_, symObjAddr: 0xF9EC, symBinAddr: 0x100012748, symSize: 0x28 }
  - { offsetInCU: 0x159C3, offset: 0x159C3, size: 0x8, addend: 0x0, symName: __ZNSt3__119__to_address_helperINS_11__wrap_iterIP4MoveEEvE6__callB8ue170006ERKS4_, symObjAddr: 0xFA38, symBinAddr: 0x100012794, symSize: 0x30 }
  - { offsetInCU: 0x159E6, offset: 0x159E6, size: 0x8, addend: 0x0, symName: __ZNSt3__114pointer_traitsINS_11__wrap_iterIP4MoveEEE10to_addressB8ue170006ES4_, symObjAddr: 0xFA68, symBinAddr: 0x1000127C4, symSize: 0x2C }
  - { offsetInCU: 0x15A09, offset: 0x15A09, size: 0x8, addend: 0x0, symName: __ZNKSt3__16vectorI4MoveNS_9allocatorIS1_EEE6cbeginB8ue170006Ev, symObjAddr: 0xFADC, symBinAddr: 0x100012838, symSize: 0x2C }
  - { offsetInCU: 0x15A2F, offset: 0x15A2F, size: 0x8, addend: 0x0, symName: __ZNSt3__16vectorI4MoveNS_9allocatorIS1_EEE17__destruct_at_endB8ue170006EPS1_, symObjAddr: 0xFB08, symBinAddr: 0x100012864, symSize: 0x4C }
  - { offsetInCU: 0x15A73, offset: 0x15A73, size: 0x8, addend: 0x0, symName: __ZNKSt3__111__wrap_iterIPK4MoveE4baseB8ue170006Ev, symObjAddr: 0xFB94, symBinAddr: 0x1000128F0, symSize: 0x18 }
  - { offsetInCU: 0x15A99, offset: 0x15A99, size: 0x8, addend: 0x0, symName: __ZNKSt3__16vectorI4MoveNS_9allocatorIS1_EEE5beginB8ue170006Ev, symObjAddr: 0xFBAC, symBinAddr: 0x100012908, symSize: 0x30 }
  - { offsetInCU: 0x15AC1, offset: 0x15AC1, size: 0x8, addend: 0x0, symName: __ZNKSt3__16vectorI4MoveNS_9allocatorIS1_EEE11__make_iterB8ue170006EPKS1_, symObjAddr: 0xFBDC, symBinAddr: 0x100012938, symSize: 0x30 }
  - { offsetInCU: 0x15AF6, offset: 0x15AF6, size: 0x8, addend: 0x0, symName: __ZNSt3__111__wrap_iterIPK4MoveEC1B8ue170006ES3_, symObjAddr: 0xFC0C, symBinAddr: 0x100012968, symSize: 0x34 }
  - { offsetInCU: 0x15B2E, offset: 0x15B2E, size: 0x8, addend: 0x0, symName: __ZNSt3__111__wrap_iterIPK4MoveEC2B8ue170006ES3_, symObjAddr: 0xFC40, symBinAddr: 0x10001299C, symSize: 0x20 }
  - { offsetInCU: 0x15B70, offset: 0x15B70, size: 0x8, addend: 0x0, symName: __ZNKSt3__114__move_trivialclB8ue170006I4MoveS2_Li0EEENS_4pairIPT_PT0_EES5_S5_S7_, symObjAddr: 0xFD9C, symBinAddr: 0x100012AF8, symSize: 0x48 }
  - { offsetInCU: 0x15BD8, offset: 0x15BD8, size: 0x8, addend: 0x0, symName: __ZNSt3__16vectorI4MoveNS_9allocatorIS1_EEE22__construct_one_at_endB8ue170006IJRKS1_EEEvDpOT_, symObjAddr: 0xFDE4, symBinAddr: 0x100012B40, symSize: 0x90 }
  - { offsetInCU: 0x15C27, offset: 0x15C27, size: 0x8, addend: 0x0, symName: __ZNSt3__16vectorI4MoveNS_9allocatorIS1_EEE21__push_back_slow_pathIRKS1_EEvOT_, symObjAddr: 0xFE74, symBinAddr: 0x100012BD0, symSize: 0xD8 }
  - { offsetInCU: 0x15C85, offset: 0x15C85, size: 0x8, addend: 0x0, symName: __ZNSt3__116allocator_traitsINS_9allocatorI4MoveEEE9constructB8ue170006IS2_JRKS2_EvEEvRS3_PT_DpOT0_, symObjAddr: 0xFF4C, symBinAddr: 0x100012CA8, symSize: 0x34 }
  - { offsetInCU: 0x15CDC, offset: 0x15CDC, size: 0x8, addend: 0x0, symName: __ZNSt3__19allocatorI4MoveE9constructB8ue170006IS1_JRKS1_EEEvPT_DpOT0_, symObjAddr: 0xFF80, symBinAddr: 0x100012CDC, symSize: 0x30 }
  - { offsetInCU: 0x15D32, offset: 0x15D32, size: 0x8, addend: 0x0, symName: __ZNKSt3__16vectorI4MoveNS_9allocatorIS1_EEE11__recommendB8ue170006Em, symObjAddr: 0xFFB0, symBinAddr: 0x100012D0C, symSize: 0xB4 }
  - { offsetInCU: 0x15D87, offset: 0x15D87, size: 0x8, addend: 0x0, symName: __ZNSt3__114__split_bufferI4MoveRNS_9allocatorIS1_EEEC1EmmS4_, symObjAddr: 0x10064, symBinAddr: 0x100012DC0, symSize: 0x44 }
  - { offsetInCU: 0x15DDD, offset: 0x15DDD, size: 0x8, addend: 0x0, symName: __ZNSt3__114__split_bufferI4MoveRNS_9allocatorIS1_EEED1Ev, symObjAddr: 0x101B8, symBinAddr: 0x100012F14, symSize: 0x2C }
  - { offsetInCU: 0x15E09, offset: 0x15E09, size: 0x8, addend: 0x0, symName: __ZNSt3__114__split_bufferI4MoveRNS_9allocatorIS1_EEEC2EmmS4_, symObjAddr: 0x10264, symBinAddr: 0x100012FC0, symSize: 0xE0 }
  - { offsetInCU: 0x15E7C, offset: 0x15E7C, size: 0x8, addend: 0x0, symName: __ZNSt3__117__compressed_pairIP4MoveRNS_9allocatorIS1_EEEC1B8ue170006IDnS5_EEOT_OT0_, symObjAddr: 0x10344, symBinAddr: 0x1000130A0, symSize: 0x3C }
  - { offsetInCU: 0x15ED4, offset: 0x15ED4, size: 0x8, addend: 0x0, symName: __ZNSt3__114__split_bufferI4MoveRNS_9allocatorIS1_EEE7__allocB8ue170006Ev, symObjAddr: 0x10380, symBinAddr: 0x1000130DC, symSize: 0x28 }
  - { offsetInCU: 0x15EFA, offset: 0x15EFA, size: 0x8, addend: 0x0, symName: __ZNSt3__114__split_bufferI4MoveRNS_9allocatorIS1_EEE9__end_capB8ue170006Ev, symObjAddr: 0x103A8, symBinAddr: 0x100013104, symSize: 0x28 }
  - { offsetInCU: 0x15F20, offset: 0x15F20, size: 0x8, addend: 0x0, symName: __ZNSt3__117__compressed_pairIP4MoveRNS_9allocatorIS1_EEEC2B8ue170006IDnS5_EEOT_OT0_, symObjAddr: 0x103D0, symBinAddr: 0x10001312C, symSize: 0x48 }
  - { offsetInCU: 0x15F78, offset: 0x15F78, size: 0x8, addend: 0x0, symName: __ZNSt3__122__compressed_pair_elemIRNS_9allocatorI4MoveEELi1ELb0EEC2B8ue170006IS4_vEEOT_, symObjAddr: 0x10418, symBinAddr: 0x100013174, symSize: 0x20 }
  - { offsetInCU: 0x15FBA, offset: 0x15FBA, size: 0x8, addend: 0x0, symName: __ZNSt3__117__compressed_pairIP4MoveRNS_9allocatorIS1_EEE6secondB8ue170006Ev, symObjAddr: 0x10438, symBinAddr: 0x100013194, symSize: 0x28 }
  - { offsetInCU: 0x15FE0, offset: 0x15FE0, size: 0x8, addend: 0x0, symName: __ZNSt3__122__compressed_pair_elemIRNS_9allocatorI4MoveEELi1ELb0EE5__getB8ue170006Ev, symObjAddr: 0x10460, symBinAddr: 0x1000131BC, symSize: 0x18 }
  - { offsetInCU: 0x16006, offset: 0x16006, size: 0x8, addend: 0x0, symName: __ZNSt3__117__compressed_pairIP4MoveRNS_9allocatorIS1_EEE5firstB8ue170006Ev, symObjAddr: 0x10478, symBinAddr: 0x1000131D4, symSize: 0x24 }
  - { offsetInCU: 0x1602C, offset: 0x1602C, size: 0x8, addend: 0x0, symName: __ZNSt3__116reverse_iteratorIP4MoveEC1B8ue170006ES2_, symObjAddr: 0x10514, symBinAddr: 0x100013270, symSize: 0x34 }
  - { offsetInCU: 0x16064, offset: 0x16064, size: 0x8, addend: 0x0, symName: __ZNKSt3__116reverse_iteratorIP4MoveE4baseB8ue170006Ev, symObjAddr: 0x10548, symBinAddr: 0x1000132A4, symSize: 0x18 }
  - { offsetInCU: 0x160AD, offset: 0x160AD, size: 0x8, addend: 0x0, symName: __ZNKSt3__111__move_loopINS_17_ClassicAlgPolicyEEclB8ue170006INS_16reverse_iteratorIP4MoveEES7_S7_EENS_4pairIT_T1_EES9_T0_SA_, symObjAddr: 0x1088C, symBinAddr: 0x1000135E8, symSize: 0xA8 }
  - { offsetInCU: 0x16118, offset: 0x16118, size: 0x8, addend: 0x0, symName: __ZNSt3__18_IterOpsINS_17_ClassicAlgPolicyEE11__iter_moveB8ue170006IRNS_16reverse_iteratorIP4MoveEEEENS_9enable_ifIXsr12is_referenceIDTdeclsr3stdE7declvalIRT_EEEEE5valueEDTclsr3stdE4movedeclsr3stdE7declvalISB_EEEEE4typeEOSA_, symObjAddr: 0x10AC8, symBinAddr: 0x100013824, symSize: 0x28 }
  - { offsetInCU: 0x16144, offset: 0x16144, size: 0x8, addend: 0x0, symName: __ZNKSt3__116reverse_iteratorIP4MoveEdeB8ue170006Ev, symObjAddr: 0x10AF0, symBinAddr: 0x10001384C, symSize: 0x28 }
  - { offsetInCU: 0x16178, offset: 0x16178, size: 0x8, addend: 0x0, symName: __ZNSt3__116reverse_iteratorIP4MoveEppB8ue170006Ev, symObjAddr: 0x10B18, symBinAddr: 0x100013874, symSize: 0x20 }
  - { offsetInCU: 0x1619E, offset: 0x1619E, size: 0x8, addend: 0x0, symName: __ZNSt3__18_IterOpsINS_17_ClassicAlgPolicyEE25__validate_iter_referenceB8ue170006IRNS_16reverse_iteratorIP4MoveEEEEvv, symObjAddr: 0x10B38, symBinAddr: 0x100013894, symSize: 0x4 }
  - { offsetInCU: 0x161BC, offset: 0x161BC, size: 0x8, addend: 0x0, symName: __ZNSt3__118__unwrap_iter_implINS_16reverse_iteratorIP4MoveEELb0EE8__unwrapB8ue170006ES4_, symObjAddr: 0x10B3C, symBinAddr: 0x100013898, symSize: 0x24 }
  - { offsetInCU: 0x161E4, offset: 0x161E4, size: 0x8, addend: 0x0, symName: __ZNSt3__14pairINS_16reverse_iteratorIP4MoveEES4_EC1B8ue170006IS4_S4_LPv0EEEOT_OT0_, symObjAddr: 0x10B60, symBinAddr: 0x1000138BC, symSize: 0x3C }
  - { offsetInCU: 0x16242, offset: 0x16242, size: 0x8, addend: 0x0, symName: __ZNSt3__14pairINS_16reverse_iteratorIP4MoveEES4_EC2B8ue170006IS4_S4_LPv0EEEOT_OT0_, symObjAddr: 0x10B9C, symBinAddr: 0x1000138F8, symSize: 0x34 }
  - { offsetInCU: 0x162A0, offset: 0x162A0, size: 0x8, addend: 0x0, symName: __ZNSt3__118__unwrap_iter_implINS_16reverse_iteratorIP4MoveEELb0EE8__rewrapB8ue170006ES4_S4_, symObjAddr: 0x10BD0, symBinAddr: 0x10001392C, symSize: 0x2C }
  - { offsetInCU: 0x162CD, offset: 0x162CD, size: 0x8, addend: 0x0, symName: __ZNSt3__116reverse_iteratorIP4MoveEC2B8ue170006ES2_, symObjAddr: 0x10BFC, symBinAddr: 0x100013958, symSize: 0x28 }
  - { offsetInCU: 0x16305, offset: 0x16305, size: 0x8, addend: 0x0, symName: __ZNSt3__114__split_bufferI4MoveRNS_9allocatorIS1_EEED2Ev, symObjAddr: 0x10C24, symBinAddr: 0x100013980, symSize: 0x8C }
  - { offsetInCU: 0x16331, offset: 0x16331, size: 0x8, addend: 0x0, symName: __ZNSt3__114__split_bufferI4MoveRNS_9allocatorIS1_EEE5clearB8ue170006Ev, symObjAddr: 0x10CB0, symBinAddr: 0x100013A0C, symSize: 0x28 }
  - { offsetInCU: 0x16357, offset: 0x16357, size: 0x8, addend: 0x0, symName: __ZNKSt3__114__split_bufferI4MoveRNS_9allocatorIS1_EEE8capacityB8ue170006Ev, symObjAddr: 0x10CD8, symBinAddr: 0x100013A34, symSize: 0x40 }
  - { offsetInCU: 0x1637D, offset: 0x1637D, size: 0x8, addend: 0x0, symName: __ZNSt3__114__split_bufferI4MoveRNS_9allocatorIS1_EEE17__destruct_at_endB8ue170006EPS1_, symObjAddr: 0x10D18, symBinAddr: 0x100013A74, symSize: 0x2C }
  - { offsetInCU: 0x163B1, offset: 0x163B1, size: 0x8, addend: 0x0, symName: __ZNSt3__114__split_bufferI4MoveRNS_9allocatorIS1_EEE17__destruct_at_endB8ue170006EPS1_NS_17integral_constantIbLb0EEE, symObjAddr: 0x10D44, symBinAddr: 0x100013AA0, symSize: 0x80 }
  - { offsetInCU: 0x163F1, offset: 0x163F1, size: 0x8, addend: 0x0, symName: __ZNKSt3__114__split_bufferI4MoveRNS_9allocatorIS1_EEE9__end_capB8ue170006Ev, symObjAddr: 0x10DC4, symBinAddr: 0x100013B20, symSize: 0x28 }
  - { offsetInCU: 0x16417, offset: 0x16417, size: 0x8, addend: 0x0, symName: __ZNKSt3__117__compressed_pairIP4MoveRNS_9allocatorIS1_EEE5firstB8ue170006Ev, symObjAddr: 0x10DEC, symBinAddr: 0x100013B48, symSize: 0x24 }
  - { offsetInCU: 0x1643D, offset: 0x1643D, size: 0x8, addend: 0x0, symName: __ZNSt3__16vectorI4MoveNS_9allocatorIS1_EEE18__insert_with_sizeB8ue170006INS_11__wrap_iterIPS1_EES8_EES8_NS6_IPKS1_EET_T0_l, symObjAddr: 0x10E10, symBinAddr: 0x100013B6C, symSize: 0x320 }
  - { offsetInCU: 0x16565, offset: 0x16565, size: 0x8, addend: 0x0, symName: __ZNSt3__16vectorI4MoveNS_9allocatorIS1_EEE18__construct_at_endINS_11__wrap_iterIPS1_EES8_EEvT_T0_m, symObjAddr: 0x11228, symBinAddr: 0x100013F84, symSize: 0x9C }
  - { offsetInCU: 0x165DB, offset: 0x165DB, size: 0x8, addend: 0x0, symName: __ZNSt3__16vectorI4MoveNS_9allocatorIS1_EEE12__move_rangeEPS1_S5_S5_, symObjAddr: 0x112C4, symBinAddr: 0x100014020, symSize: 0x13C }
  - { offsetInCU: 0x16697, offset: 0x16697, size: 0x8, addend: 0x0, symName: __ZNSt3__114__split_bufferI4MoveRNS_9allocatorIS1_EEE28__construct_at_end_with_sizeINS_11__wrap_iterIPS1_EEEEvT_m, symObjAddr: 0x11450, symBinAddr: 0x1000141AC, symSize: 0xD0 }
  - { offsetInCU: 0x166F3, offset: 0x166F3, size: 0x8, addend: 0x0, symName: __ZNSt3__116allocator_traitsINS_9allocatorI4MoveEEE9constructB8ue170006IS2_JS2_EvEEvRS3_PT_DpOT0_, symObjAddr: 0x117AC, symBinAddr: 0x100014508, symSize: 0x34 }
  - { offsetInCU: 0x1674A, offset: 0x1674A, size: 0x8, addend: 0x0, symName: __ZNSt3__19allocatorI4MoveE9constructB8ue170006IS1_JS1_EEEvPT_DpOT0_, symObjAddr: 0x11820, symBinAddr: 0x10001457C, symSize: 0x30 }
  - { offsetInCU: 0x167AA, offset: 0x167AA, size: 0x8, addend: 0x0, symName: __ZNKSt3__123__move_backward_trivialclB8ue170006I4MoveS2_Li0EEENS_4pairIPT_PT0_EES5_S5_S7_, symObjAddr: 0x1198C, symBinAddr: 0x1000146E8, symSize: 0x48 }
  - { offsetInCU: 0x16812, offset: 0x16812, size: 0x8, addend: 0x0, symName: __ZNSt3__14pairIP4MoveS2_EC1B8ue170006IRS2_S5_LPv0EEEOT_OT0_, symObjAddr: 0x11A9C, symBinAddr: 0x1000147F8, symSize: 0x3C }
  - { offsetInCU: 0x16870, offset: 0x16870, size: 0x8, addend: 0x0, symName: __ZNSt3__14pairIP4MoveS2_EC2B8ue170006IRS2_S5_LPv0EEEOT_OT0_, symObjAddr: 0x11AD8, symBinAddr: 0x100014834, symSize: 0x34 }
  - { offsetInCU: 0x168EC, offset: 0x168EC, size: 0x8, addend: 0x0, symName: __ZNSt3__14pairINS_11__wrap_iterIP4MoveEES3_EC1B8ue170006IS4_S3_LPv0EEEOT_OT0_, symObjAddr: 0x11CF4, symBinAddr: 0x100014A50, symSize: 0x3C }
  - { offsetInCU: 0x1694A, offset: 0x1694A, size: 0x8, addend: 0x0, symName: __ZNSt3__14pairINS_11__wrap_iterIP4MoveEES3_EC2B8ue170006IS4_S3_LPv0EEEOT_OT0_, symObjAddr: 0x11D30, symBinAddr: 0x100014A8C, symSize: 0x34 }
  - { offsetInCU: 0x169A8, offset: 0x169A8, size: 0x8, addend: 0x0, symName: __ZNSt3__118__unwrap_iter_implINS_11__wrap_iterIP4MoveEELb1EE8__rewrapB8ue170006ES4_S3_, symObjAddr: 0x11DB0, symBinAddr: 0x100014B0C, symSize: 0x5C }
  - { offsetInCU: 0x169E3, offset: 0x169E3, size: 0x8, addend: 0x0, symName: __ZNSt3__114__split_bufferI4MoveRNS_9allocatorIS1_EEE21_ConstructTransactionC1B8ue170006EPPS1_m, symObjAddr: 0x11E0C, symBinAddr: 0x100014B68, symSize: 0x3C }
  - { offsetInCU: 0x16A29, offset: 0x16A29, size: 0x8, addend: 0x0, symName: __ZNSt3__116allocator_traitsINS_9allocatorI4MoveEEE9constructB8ue170006IS2_JRS2_EvEEvRS3_PT_DpOT0_, symObjAddr: 0x11E48, symBinAddr: 0x100014BA4, symSize: 0x34 }
  - { offsetInCU: 0x16A80, offset: 0x16A80, size: 0x8, addend: 0x0, symName: __ZNKSt3__111__wrap_iterIP4MoveEdeB8ue170006Ev, symObjAddr: 0x11E7C, symBinAddr: 0x100014BD8, symSize: 0x18 }
  - { offsetInCU: 0x16AA6, offset: 0x16AA6, size: 0x8, addend: 0x0, symName: __ZNSt3__111__wrap_iterIP4MoveEppB8ue170006Ev, symObjAddr: 0x11E94, symBinAddr: 0x100014BF0, symSize: 0x20 }
  - { offsetInCU: 0x16ACC, offset: 0x16ACC, size: 0x8, addend: 0x0, symName: __ZNSt3__114__split_bufferI4MoveRNS_9allocatorIS1_EEE21_ConstructTransactionD1B8ue170006Ev, symObjAddr: 0x11EB4, symBinAddr: 0x100014C10, symSize: 0x2C }
  - { offsetInCU: 0x16AF6, offset: 0x16AF6, size: 0x8, addend: 0x0, symName: __ZNSt3__114__split_bufferI4MoveRNS_9allocatorIS1_EEE21_ConstructTransactionC2B8ue170006EPPS1_m, symObjAddr: 0x11EE0, symBinAddr: 0x100014C3C, symSize: 0x4C }
  - { offsetInCU: 0x16B3C, offset: 0x16B3C, size: 0x8, addend: 0x0, symName: __ZNSt3__19allocatorI4MoveE9constructB8ue170006IS1_JRS1_EEEvPT_DpOT0_, symObjAddr: 0x11F2C, symBinAddr: 0x100014C88, symSize: 0x30 }
  - { offsetInCU: 0x16B92, offset: 0x16B92, size: 0x8, addend: 0x0, symName: __ZNSt3__114__split_bufferI4MoveRNS_9allocatorIS1_EEE21_ConstructTransactionD2B8ue170006Ev, symObjAddr: 0x11F5C, symBinAddr: 0x100014CB8, symSize: 0x20 }
  - { offsetInCU: 0x16BBC, offset: 0x16BBC, size: 0x8, addend: 0x0, symName: __ZNSt3__114pointer_traitsIPK4MoveE10pointer_toB8ue170006ERS2_, symObjAddr: 0x1202C, symBinAddr: 0x100014D88, symSize: 0x14 }
  - { offsetInCU: 0x16BDF, offset: 0x16BDF, size: 0x8, addend: 0x0, symName: __ZNSt3__114__split_bufferI4MoveRNS_9allocatorIS1_EEE9push_backB8ue170006ERKS1_, symObjAddr: 0x12040, symBinAddr: 0x100014D9C, symSize: 0x260 }
  - { offsetInCU: 0x16C57, offset: 0x16C57, size: 0x8, addend: 0x0, symName: __ZNSt3__114__split_bufferI4MoveRNS_9allocatorIS1_EEE18__construct_at_endINS_13move_iteratorIPS1_EEEENS_9enable_ifIXsr31__has_forward_iterator_categoryIT_EE5valueEvE4typeESB_SB_, symObjAddr: 0x122A0, symBinAddr: 0x100014FFC, symSize: 0x60 }
  - { offsetInCU: 0x16CA4, offset: 0x16CA4, size: 0x8, addend: 0x0, symName: __ZNSt3__113move_iteratorIP4MoveEC1B8ue170006ES2_, symObjAddr: 0x12300, symBinAddr: 0x10001505C, symSize: 0x34 }
  - { offsetInCU: 0x16CDC, offset: 0x16CDC, size: 0x8, addend: 0x0, symName: __ZNSt3__114__split_bufferI4MoveRNS_9allocatorIS1_EEE28__construct_at_end_with_sizeINS_13move_iteratorIPS1_EEEEvT_m, symObjAddr: 0x12334, symBinAddr: 0x100015090, symSize: 0xDC }
  - { offsetInCU: 0x16D38, offset: 0x16D38, size: 0x8, addend: 0x0, symName: __ZNKSt3__113move_iteratorIP4MoveEdeB8ue170006Ev, symObjAddr: 0x1244C, symBinAddr: 0x1000151A8, symSize: 0x18 }
  - { offsetInCU: 0x16D5E, offset: 0x16D5E, size: 0x8, addend: 0x0, symName: __ZNSt3__113move_iteratorIP4MoveEppB8ue170006Ev, symObjAddr: 0x12464, symBinAddr: 0x1000151C0, symSize: 0x20 }
  - { offsetInCU: 0x16D84, offset: 0x16D84, size: 0x8, addend: 0x0, symName: __ZNKSt3__113move_iteratorIP4MoveE4baseB8ue170006Ev, symObjAddr: 0x124FC, symBinAddr: 0x100015258, symSize: 0x18 }
  - { offsetInCU: 0x16DAA, offset: 0x16DAA, size: 0x8, addend: 0x0, symName: __ZNSt3__113move_iteratorIP4MoveEC2B8ue170006ES2_, symObjAddr: 0x12514, symBinAddr: 0x100015270, symSize: 0x20 }
  - { offsetInCU: 0x16DE2, offset: 0x16DE2, size: 0x8, addend: 0x0, symName: __ZNSt3__16vectorINS_12basic_stringIcNS_11char_traitsIcEENS_9allocatorIcEEEENS4_IS6_EEEC2B8ue170006Ev, symObjAddr: 0x12534, symBinAddr: 0x100015290, symSize: 0x4C }
  - { offsetInCU: 0x16E0C, offset: 0x16E0C, size: 0x8, addend: 0x0, symName: __ZNSt3__117__compressed_pairIPNS_12basic_stringIcNS_11char_traitsIcEENS_9allocatorIcEEEENS4_IS6_EEEC1B8ue170006IDnNS_18__default_init_tagEEEOT_OT0_, symObjAddr: 0x12580, symBinAddr: 0x1000152DC, symSize: 0x3C }
  - { offsetInCU: 0x16E64, offset: 0x16E64, size: 0x8, addend: 0x0, symName: __ZNSt3__117__compressed_pairIPNS_12basic_stringIcNS_11char_traitsIcEENS_9allocatorIcEEEENS4_IS6_EEEC2B8ue170006IDnNS_18__default_init_tagEEEOT_OT0_, symObjAddr: 0x125BC, symBinAddr: 0x100015318, symSize: 0x40 }
  - { offsetInCU: 0x16EBC, offset: 0x16EBC, size: 0x8, addend: 0x0, symName: __ZNSt3__122__compressed_pair_elemIPNS_12basic_stringIcNS_11char_traitsIcEENS_9allocatorIcEEEELi0ELb0EEC2B8ue170006IDnvEEOT_, symObjAddr: 0x125FC, symBinAddr: 0x100015358, symSize: 0x1C }
  - { offsetInCU: 0x16EFE, offset: 0x16EFE, size: 0x8, addend: 0x0, symName: __ZNSt3__122__compressed_pair_elemINS_9allocatorINS_12basic_stringIcNS_11char_traitsIcEENS1_IcEEEEEELi1ELb1EEC2B8ue170006ENS_18__default_init_tagE, symObjAddr: 0x12618, symBinAddr: 0x100015374, symSize: 0x2C }
  - { offsetInCU: 0x16F32, offset: 0x16F32, size: 0x8, addend: 0x0, symName: __ZNSt3__19allocatorINS_12basic_stringIcNS_11char_traitsIcEENS0_IcEEEEEC2B8ue170006Ev, symObjAddr: 0x12644, symBinAddr: 0x1000153A0, symSize: 0x2C }
  - { offsetInCU: 0x16F5C, offset: 0x16F5C, size: 0x8, addend: 0x0, symName: __ZNSt3__116__non_trivial_ifILb1ENS_9allocatorINS_12basic_stringIcNS_11char_traitsIcEENS1_IcEEEEEEEC2B8ue170006Ev, symObjAddr: 0x12670, symBinAddr: 0x1000153CC, symSize: 0x14 }
  - { offsetInCU: 0x16F86, offset: 0x16F86, size: 0x8, addend: 0x0, symName: __ZNSt3__16vectorINS_12basic_stringIcNS_11char_traitsIcEENS_9allocatorIcEEEENS4_IS6_EEED2B8ue170006Ev, symObjAddr: 0x12684, symBinAddr: 0x1000153E0, symSize: 0x44 }
  - { offsetInCU: 0x16FB0, offset: 0x16FB0, size: 0x8, addend: 0x0, symName: __ZNSt3__16vectorINS_12basic_stringIcNS_11char_traitsIcEENS_9allocatorIcEEEENS4_IS6_EEE16__destroy_vectorC1B8ue170006ERS8_, symObjAddr: 0x126C8, symBinAddr: 0x100015424, symSize: 0x34 }
  - { offsetInCU: 0x16FE9, offset: 0x16FE9, size: 0x8, addend: 0x0, symName: __ZNSt3__16vectorINS_12basic_stringIcNS_11char_traitsIcEENS_9allocatorIcEEEENS4_IS6_EEE16__destroy_vectorclB8ue170006Ev, symObjAddr: 0x126FC, symBinAddr: 0x100015458, symSize: 0x90 }
  - { offsetInCU: 0x1700F, offset: 0x1700F, size: 0x8, addend: 0x0, symName: __ZNSt3__16vectorINS_12basic_stringIcNS_11char_traitsIcEENS_9allocatorIcEEEENS4_IS6_EEE16__destroy_vectorC2B8ue170006ERS8_, symObjAddr: 0x1278C, symBinAddr: 0x1000154E8, symSize: 0x20 }
  - { offsetInCU: 0x17048, offset: 0x17048, size: 0x8, addend: 0x0, symName: __ZNSt3__16vectorINS_12basic_stringIcNS_11char_traitsIcEENS_9allocatorIcEEEENS4_IS6_EEE7__clearB8ue170006Ev, symObjAddr: 0x127AC, symBinAddr: 0x100015508, symSize: 0x28 }
  - { offsetInCU: 0x1706E, offset: 0x1706E, size: 0x8, addend: 0x0, symName: __ZNKSt3__16vectorINS_12basic_stringIcNS_11char_traitsIcEENS_9allocatorIcEEEENS4_IS6_EEE17__annotate_deleteB8ue170006Ev, symObjAddr: 0x127D4, symBinAddr: 0x100015530, symSize: 0xD4 }
  - { offsetInCU: 0x17094, offset: 0x17094, size: 0x8, addend: 0x0, symName: __ZNSt3__116allocator_traitsINS_9allocatorINS_12basic_stringIcNS_11char_traitsIcEENS1_IcEEEEEEE10deallocateB8ue170006ERS7_PS6_m, symObjAddr: 0x128A8, symBinAddr: 0x100015604, symSize: 0x34 }
  - { offsetInCU: 0x170D6, offset: 0x170D6, size: 0x8, addend: 0x0, symName: __ZNSt3__16vectorINS_12basic_stringIcNS_11char_traitsIcEENS_9allocatorIcEEEENS4_IS6_EEE7__allocB8ue170006Ev, symObjAddr: 0x128DC, symBinAddr: 0x100015638, symSize: 0x28 }
  - { offsetInCU: 0x170FC, offset: 0x170FC, size: 0x8, addend: 0x0, symName: __ZNKSt3__16vectorINS_12basic_stringIcNS_11char_traitsIcEENS_9allocatorIcEEEENS4_IS6_EEE8capacityB8ue170006Ev, symObjAddr: 0x12904, symBinAddr: 0x100015660, symSize: 0x40 }
  - { offsetInCU: 0x17122, offset: 0x17122, size: 0x8, addend: 0x0, symName: __ZNSt3__16vectorINS_12basic_stringIcNS_11char_traitsIcEENS_9allocatorIcEEEENS4_IS6_EEE22__base_destruct_at_endB8ue170006EPS6_, symObjAddr: 0x12944, symBinAddr: 0x1000156A0, symSize: 0x8C }
  - { offsetInCU: 0x17166, offset: 0x17166, size: 0x8, addend: 0x0, symName: __ZNSt3__116allocator_traitsINS_9allocatorINS_12basic_stringIcNS_11char_traitsIcEENS1_IcEEEEEEE7destroyB8ue170006IS6_vEEvRS7_PT_, symObjAddr: 0x129D0, symBinAddr: 0x10001572C, symSize: 0x2C }
  - { offsetInCU: 0x171A3, offset: 0x171A3, size: 0x8, addend: 0x0, symName: __ZNSt3__19allocatorINS_12basic_stringIcNS_11char_traitsIcEENS0_IcEEEEE7destroyB8ue170006EPS5_, symObjAddr: 0x12A10, symBinAddr: 0x10001576C, symSize: 0x28 }
  - { offsetInCU: 0x171D7, offset: 0x171D7, size: 0x8, addend: 0x0, symName: __ZNKSt3__16vectorINS_12basic_stringIcNS_11char_traitsIcEENS_9allocatorIcEEEENS4_IS6_EEE31__annotate_contiguous_containerB8ue170006EPKvSA_SA_SA_, symObjAddr: 0x12A38, symBinAddr: 0x100015794, symSize: 0x20 }
  - { offsetInCU: 0x17229, offset: 0x17229, size: 0x8, addend: 0x0, symName: __ZNKSt3__16vectorINS_12basic_stringIcNS_11char_traitsIcEENS_9allocatorIcEEEENS4_IS6_EEE4dataB8ue170006Ev, symObjAddr: 0x12A58, symBinAddr: 0x1000157B4, symSize: 0x28 }
  - { offsetInCU: 0x1724F, offset: 0x1724F, size: 0x8, addend: 0x0, symName: __ZNSt3__19allocatorINS_12basic_stringIcNS_11char_traitsIcEENS0_IcEEEEE10deallocateB8ue170006EPS5_m, symObjAddr: 0x12A80, symBinAddr: 0x1000157DC, symSize: 0x44 }
  - { offsetInCU: 0x17291, offset: 0x17291, size: 0x8, addend: 0x0, symName: __ZNSt3__117__compressed_pairIPNS_12basic_stringIcNS_11char_traitsIcEENS_9allocatorIcEEEENS4_IS6_EEE6secondB8ue170006Ev, symObjAddr: 0x12AC4, symBinAddr: 0x100015820, symSize: 0x24 }
  - { offsetInCU: 0x172B7, offset: 0x172B7, size: 0x8, addend: 0x0, symName: __ZNSt3__122__compressed_pair_elemINS_9allocatorINS_12basic_stringIcNS_11char_traitsIcEENS1_IcEEEEEELi1ELb1EE5__getB8ue170006Ev, symObjAddr: 0x12AE8, symBinAddr: 0x100015844, symSize: 0x14 }
  - { offsetInCU: 0x172DD, offset: 0x172DD, size: 0x8, addend: 0x0, symName: __ZNKSt3__16vectorINS_12basic_stringIcNS_11char_traitsIcEENS_9allocatorIcEEEENS4_IS6_EEE9__end_capB8ue170006Ev, symObjAddr: 0x12AFC, symBinAddr: 0x100015858, symSize: 0x28 }
  - { offsetInCU: 0x17303, offset: 0x17303, size: 0x8, addend: 0x0, symName: __ZNKSt3__117__compressed_pairIPNS_12basic_stringIcNS_11char_traitsIcEENS_9allocatorIcEEEENS4_IS6_EEE5firstB8ue170006Ev, symObjAddr: 0x12B24, symBinAddr: 0x100015880, symSize: 0x24 }
  - { offsetInCU: 0x17329, offset: 0x17329, size: 0x8, addend: 0x0, symName: __ZNKSt3__122__compressed_pair_elemIPNS_12basic_stringIcNS_11char_traitsIcEENS_9allocatorIcEEEELi0ELb0EE5__getB8ue170006Ev, symObjAddr: 0x12B48, symBinAddr: 0x1000158A4, symSize: 0x14 }
  - { offsetInCU: 0x1734F, offset: 0x1734F, size: 0x8, addend: 0x0, symName: __ZNSt3__16vectorINS_12basic_stringIcNS_11char_traitsIcEENS_9allocatorIcEEEENS4_IS6_EEE9__end_capB8ue170006Ev, symObjAddr: 0x12B5C, symBinAddr: 0x1000158B8, symSize: 0x28 }
  - { offsetInCU: 0x17375, offset: 0x17375, size: 0x8, addend: 0x0, symName: __ZNSt3__16vectorINS_12basic_stringIcNS_11char_traitsIcEENS_9allocatorIcEEEENS4_IS6_EEE22__construct_one_at_endB8ue170006IJRKS6_EEEvDpOT_, symObjAddr: 0x12B84, symBinAddr: 0x1000158E0, symSize: 0x90 }
  - { offsetInCU: 0x173C4, offset: 0x173C4, size: 0x8, addend: 0x0, symName: __ZNSt3__16vectorINS_12basic_stringIcNS_11char_traitsIcEENS_9allocatorIcEEEENS4_IS6_EEE21__push_back_slow_pathIRKS6_EEvOT_, symObjAddr: 0x12C14, symBinAddr: 0x100015970, symSize: 0xD8 }
  - { offsetInCU: 0x17422, offset: 0x17422, size: 0x8, addend: 0x0, symName: __ZNSt3__117__compressed_pairIPNS_12basic_stringIcNS_11char_traitsIcEENS_9allocatorIcEEEENS4_IS6_EEE5firstB8ue170006Ev, symObjAddr: 0x12CEC, symBinAddr: 0x100015A48, symSize: 0x24 }
  - { offsetInCU: 0x17448, offset: 0x17448, size: 0x8, addend: 0x0, symName: __ZNSt3__122__compressed_pair_elemIPNS_12basic_stringIcNS_11char_traitsIcEENS_9allocatorIcEEEELi0ELb0EE5__getB8ue170006Ev, symObjAddr: 0x12D10, symBinAddr: 0x100015A6C, symSize: 0x14 }
  - { offsetInCU: 0x17487, offset: 0x17487, size: 0x8, addend: 0x0, symName: __ZNSt3__16vectorINS_12basic_stringIcNS_11char_traitsIcEENS_9allocatorIcEEEENS4_IS6_EEE21_ConstructTransactionC1B8ue170006ERS8_m, symObjAddr: 0x12D24, symBinAddr: 0x100015A80, symSize: 0x3C }
  - { offsetInCU: 0x174CF, offset: 0x174CF, size: 0x8, addend: 0x0, symName: __ZNSt3__116allocator_traitsINS_9allocatorINS_12basic_stringIcNS_11char_traitsIcEENS1_IcEEEEEEE9constructB8ue170006IS6_JRKS6_EvEEvRS7_PT_DpOT0_, symObjAddr: 0x12D60, symBinAddr: 0x100015ABC, symSize: 0x34 }
  - { offsetInCU: 0x17526, offset: 0x17526, size: 0x8, addend: 0x0, symName: __ZNSt3__16vectorINS_12basic_stringIcNS_11char_traitsIcEENS_9allocatorIcEEEENS4_IS6_EEE21_ConstructTransactionD1B8ue170006Ev, symObjAddr: 0x12D94, symBinAddr: 0x100015AF0, symSize: 0x2C }
  - { offsetInCU: 0x17550, offset: 0x17550, size: 0x8, addend: 0x0, symName: __ZNSt3__16vectorINS_12basic_stringIcNS_11char_traitsIcEENS_9allocatorIcEEEENS4_IS6_EEE21_ConstructTransactionC2B8ue170006ERS8_m, symObjAddr: 0x12DC0, symBinAddr: 0x100015B1C, symSize: 0x4C }
  - { offsetInCU: 0x17598, offset: 0x17598, size: 0x8, addend: 0x0, symName: __ZNSt3__19allocatorINS_12basic_stringIcNS_11char_traitsIcEENS0_IcEEEEE9constructB8ue170006IS5_JRKS5_EEEvPT_DpOT0_, symObjAddr: 0x12E0C, symBinAddr: 0x100015B68, symSize: 0x30 }
  - { offsetInCU: 0x175EE, offset: 0x175EE, size: 0x8, addend: 0x0, symName: __ZNSt3__16vectorINS_12basic_stringIcNS_11char_traitsIcEENS_9allocatorIcEEEENS4_IS6_EEE21_ConstructTransactionD2B8ue170006Ev, symObjAddr: 0x12E3C, symBinAddr: 0x100015B98, symSize: 0x20 }
  - { offsetInCU: 0x17618, offset: 0x17618, size: 0x8, addend: 0x0, symName: __ZNKSt3__16vectorINS_12basic_stringIcNS_11char_traitsIcEENS_9allocatorIcEEEENS4_IS6_EEE11__recommendB8ue170006Em, symObjAddr: 0x12E5C, symBinAddr: 0x100015BB8, symSize: 0xB4 }
  - { offsetInCU: 0x1766D, offset: 0x1766D, size: 0x8, addend: 0x0, symName: __ZNSt3__114__split_bufferINS_12basic_stringIcNS_11char_traitsIcEENS_9allocatorIcEEEERNS4_IS6_EEEC1EmmS8_, symObjAddr: 0x12F10, symBinAddr: 0x100015C6C, symSize: 0x44 }
  - { offsetInCU: 0x176C3, offset: 0x176C3, size: 0x8, addend: 0x0, symName: __ZNSt3__114__split_bufferINS_12basic_stringIcNS_11char_traitsIcEENS_9allocatorIcEEEERNS4_IS6_EEED1Ev, symObjAddr: 0x13064, symBinAddr: 0x100015DC0, symSize: 0x2C }
  - { offsetInCU: 0x176EF, offset: 0x176EF, size: 0x8, addend: 0x0, symName: __ZNKSt3__16vectorINS_12basic_stringIcNS_11char_traitsIcEENS_9allocatorIcEEEENS4_IS6_EEE8max_sizeEv, symObjAddr: 0x13090, symBinAddr: 0x100015DEC, symSize: 0x60 }
  - { offsetInCU: 0x17717, offset: 0x17717, size: 0x8, addend: 0x0, symName: __ZNKSt3__16vectorINS_12basic_stringIcNS_11char_traitsIcEENS_9allocatorIcEEEENS4_IS6_EEE20__throw_length_errorB8ue170006Ev, symObjAddr: 0x130F0, symBinAddr: 0x100015E4C, symSize: 0x1C }
  - { offsetInCU: 0x17747, offset: 0x17747, size: 0x8, addend: 0x0, symName: __ZNSt3__116allocator_traitsINS_9allocatorINS_12basic_stringIcNS_11char_traitsIcEENS1_IcEEEEEEE8max_sizeB8ue170006IS7_vEEmRKS7_, symObjAddr: 0x1310C, symBinAddr: 0x100015E68, symSize: 0x24 }
  - { offsetInCU: 0x17775, offset: 0x17775, size: 0x8, addend: 0x0, symName: __ZNKSt3__16vectorINS_12basic_stringIcNS_11char_traitsIcEENS_9allocatorIcEEEENS4_IS6_EEE7__allocB8ue170006Ev, symObjAddr: 0x13130, symBinAddr: 0x100015E8C, symSize: 0x28 }
  - { offsetInCU: 0x1779B, offset: 0x1779B, size: 0x8, addend: 0x0, symName: __ZNKSt3__19allocatorINS_12basic_stringIcNS_11char_traitsIcEENS0_IcEEEEE8max_sizeB8ue170006Ev, symObjAddr: 0x13158, symBinAddr: 0x100015EB4, symSize: 0x18 }
  - { offsetInCU: 0x177C1, offset: 0x177C1, size: 0x8, addend: 0x0, symName: __ZNKSt3__117__compressed_pairIPNS_12basic_stringIcNS_11char_traitsIcEENS_9allocatorIcEEEENS4_IS6_EEE6secondB8ue170006Ev, symObjAddr: 0x13170, symBinAddr: 0x100015ECC, symSize: 0x24 }
  - { offsetInCU: 0x177E7, offset: 0x177E7, size: 0x8, addend: 0x0, symName: __ZNKSt3__122__compressed_pair_elemINS_9allocatorINS_12basic_stringIcNS_11char_traitsIcEENS1_IcEEEEEELi1ELb1EE5__getB8ue170006Ev, symObjAddr: 0x13194, symBinAddr: 0x100015EF0, symSize: 0x14 }
  - { offsetInCU: 0x1780D, offset: 0x1780D, size: 0x8, addend: 0x0, symName: __ZNSt3__114__split_bufferINS_12basic_stringIcNS_11char_traitsIcEENS_9allocatorIcEEEERNS4_IS6_EEEC2EmmS8_, symObjAddr: 0x131A8, symBinAddr: 0x100015F04, symSize: 0xE0 }
  - { offsetInCU: 0x17880, offset: 0x17880, size: 0x8, addend: 0x0, symName: __ZNSt3__117__compressed_pairIPNS_12basic_stringIcNS_11char_traitsIcEENS_9allocatorIcEEEERNS4_IS6_EEEC1B8ue170006IDnS9_EEOT_OT0_, symObjAddr: 0x13288, symBinAddr: 0x100015FE4, symSize: 0x3C }
  - { offsetInCU: 0x178D8, offset: 0x178D8, size: 0x8, addend: 0x0, symName: __ZNSt3__114__split_bufferINS_12basic_stringIcNS_11char_traitsIcEENS_9allocatorIcEEEERNS4_IS6_EEE7__allocB8ue170006Ev, symObjAddr: 0x13304, symBinAddr: 0x100016060, symSize: 0x28 }
  - { offsetInCU: 0x178FE, offset: 0x178FE, size: 0x8, addend: 0x0, symName: __ZNSt3__114__split_bufferINS_12basic_stringIcNS_11char_traitsIcEENS_9allocatorIcEEEERNS4_IS6_EEE9__end_capB8ue170006Ev, symObjAddr: 0x1332C, symBinAddr: 0x100016088, symSize: 0x28 }
  - { offsetInCU: 0x17924, offset: 0x17924, size: 0x8, addend: 0x0, symName: __ZNSt3__117__compressed_pairIPNS_12basic_stringIcNS_11char_traitsIcEENS_9allocatorIcEEEERNS4_IS6_EEEC2B8ue170006IDnS9_EEOT_OT0_, symObjAddr: 0x13354, symBinAddr: 0x1000160B0, symSize: 0x48 }
  - { offsetInCU: 0x1797C, offset: 0x1797C, size: 0x8, addend: 0x0, symName: __ZNSt3__122__compressed_pair_elemIRNS_9allocatorINS_12basic_stringIcNS_11char_traitsIcEENS1_IcEEEEEELi1ELb0EEC2B8ue170006IS8_vEEOT_, symObjAddr: 0x1339C, symBinAddr: 0x1000160F8, symSize: 0x20 }
  - { offsetInCU: 0x179BE, offset: 0x179BE, size: 0x8, addend: 0x0, symName: __ZNSt3__19allocatorINS_12basic_stringIcNS_11char_traitsIcEENS0_IcEEEEE8allocateB8ue170006Em, symObjAddr: 0x133BC, symBinAddr: 0x100016118, symSize: 0x5C }
  - { offsetInCU: 0x179F2, offset: 0x179F2, size: 0x8, addend: 0x0, symName: __ZNSt3__117__compressed_pairIPNS_12basic_stringIcNS_11char_traitsIcEENS_9allocatorIcEEEERNS4_IS6_EEE6secondB8ue170006Ev, symObjAddr: 0x13418, symBinAddr: 0x100016174, symSize: 0x28 }
  - { offsetInCU: 0x17A18, offset: 0x17A18, size: 0x8, addend: 0x0, symName: __ZNSt3__122__compressed_pair_elemIRNS_9allocatorINS_12basic_stringIcNS_11char_traitsIcEENS1_IcEEEEEELi1ELb0EE5__getB8ue170006Ev, symObjAddr: 0x13440, symBinAddr: 0x10001619C, symSize: 0x18 }
  - { offsetInCU: 0x17A3E, offset: 0x17A3E, size: 0x8, addend: 0x0, symName: __ZNSt3__117__compressed_pairIPNS_12basic_stringIcNS_11char_traitsIcEENS_9allocatorIcEEEERNS4_IS6_EEE5firstB8ue170006Ev, symObjAddr: 0x13458, symBinAddr: 0x1000161B4, symSize: 0x24 }
  - { offsetInCU: 0x17A64, offset: 0x17A64, size: 0x8, addend: 0x0, symName: __ZNSt3__116reverse_iteratorIPNS_12basic_stringIcNS_11char_traitsIcEENS_9allocatorIcEEEEEC1B8ue170006ES7_, symObjAddr: 0x135A8, symBinAddr: 0x100016304, symSize: 0x34 }
  - { offsetInCU: 0x17A9C, offset: 0x17A9C, size: 0x8, addend: 0x0, symName: __ZNKSt3__116reverse_iteratorIPNS_12basic_stringIcNS_11char_traitsIcEENS_9allocatorIcEEEEE4baseB8ue170006Ev, symObjAddr: 0x135DC, symBinAddr: 0x100016338, symSize: 0x18 }
  - { offsetInCU: 0x17AC2, offset: 0x17AC2, size: 0x8, addend: 0x0, symName: __ZNKSt3__16vectorINS_12basic_stringIcNS_11char_traitsIcEENS_9allocatorIcEEEENS4_IS6_EEE14__annotate_newB8ue170006Em, symObjAddr: 0x13630, symBinAddr: 0x10001638C, symSize: 0xC8 }
  - { offsetInCU: 0x17AF7, offset: 0x17AF7, size: 0x8, addend: 0x0, symName: __ZNSt3__129_AllocatorDestroyRangeReverseINS_9allocatorINS_12basic_stringIcNS_11char_traitsIcEENS1_IcEEEEEENS_16reverse_iteratorIPS6_EEEC1B8ue170006ERS7_RSA_SD_, symObjAddr: 0x13744, symBinAddr: 0x1000164A0, symSize: 0x44 }
  - { offsetInCU: 0x17B53, offset: 0x17B53, size: 0x8, addend: 0x0, symName: __ZNSt3__116allocator_traitsINS_9allocatorINS_12basic_stringIcNS_11char_traitsIcEENS1_IcEEEEEEE9constructB8ue170006IS6_JS6_EvEEvRS7_PT_DpOT0_, symObjAddr: 0x137D0, symBinAddr: 0x10001652C, symSize: 0x34 }
  - { offsetInCU: 0x17BAA, offset: 0x17BAA, size: 0x8, addend: 0x0, symName: __ZNKSt3__116reverse_iteratorIPNS_12basic_stringIcNS_11char_traitsIcEENS_9allocatorIcEEEEEdeB8ue170006Ev, symObjAddr: 0x13828, symBinAddr: 0x100016584, symSize: 0x28 }
  - { offsetInCU: 0x17BDE, offset: 0x17BDE, size: 0x8, addend: 0x0, symName: __ZNSt3__116reverse_iteratorIPNS_12basic_stringIcNS_11char_traitsIcEENS_9allocatorIcEEEEEppB8ue170006Ev, symObjAddr: 0x13850, symBinAddr: 0x1000165AC, symSize: 0x20 }
  - { offsetInCU: 0x17C04, offset: 0x17C04, size: 0x8, addend: 0x0, symName: __ZNSt3__128__exception_guard_exceptionsINS_29_AllocatorDestroyRangeReverseINS_9allocatorINS_12basic_stringIcNS_11char_traitsIcEENS2_IcEEEEEENS_16reverse_iteratorIPS7_EEEEE10__completeB8ue170006Ev, symObjAddr: 0x13870, symBinAddr: 0x1000165CC, symSize: 0x1C }
  - { offsetInCU: 0x17C2A, offset: 0x17C2A, size: 0x8, addend: 0x0, symName: __ZNSt3__128__exception_guard_exceptionsINS_29_AllocatorDestroyRangeReverseINS_9allocatorINS_12basic_stringIcNS_11char_traitsIcEENS2_IcEEEEEENS_16reverse_iteratorIPS7_EEEEED1B8ue170006Ev, symObjAddr: 0x1388C, symBinAddr: 0x1000165E8, symSize: 0x2C }
  - { offsetInCU: 0x17C54, offset: 0x17C54, size: 0x8, addend: 0x0, symName: __ZNSt3__128__exception_guard_exceptionsINS_29_AllocatorDestroyRangeReverseINS_9allocatorINS_12basic_stringIcNS_11char_traitsIcEENS2_IcEEEEEENS_16reverse_iteratorIPS7_EEEEEC1B8ue170006ESC_, symObjAddr: 0x138B8, symBinAddr: 0x100016614, symSize: 0x34 }
  - { offsetInCU: 0x17C8D, offset: 0x17C8D, size: 0x8, addend: 0x0, symName: __ZNSt3__128__exception_guard_exceptionsINS_29_AllocatorDestroyRangeReverseINS_9allocatorINS_12basic_stringIcNS_11char_traitsIcEENS2_IcEEEEEENS_16reverse_iteratorIPS7_EEEEEC2B8ue170006ESC_, symObjAddr: 0x138EC, symBinAddr: 0x100016648, symSize: 0x30 }
  - { offsetInCU: 0x17CC6, offset: 0x17CC6, size: 0x8, addend: 0x0, symName: __ZNSt3__129_AllocatorDestroyRangeReverseINS_9allocatorINS_12basic_stringIcNS_11char_traitsIcEENS1_IcEEEEEENS_16reverse_iteratorIPS6_EEEC2B8ue170006ERS7_RSA_SD_, symObjAddr: 0x1391C, symBinAddr: 0x100016678, symSize: 0x38 }
  - { offsetInCU: 0x17D1D, offset: 0x17D1D, size: 0x8, addend: 0x0, symName: __ZNSt3__19allocatorINS_12basic_stringIcNS_11char_traitsIcEENS0_IcEEEEE9constructB8ue170006IS5_JS5_EEEvPT_DpOT0_, symObjAddr: 0x13954, symBinAddr: 0x1000166B0, symSize: 0x30 }
  - { offsetInCU: 0x17D73, offset: 0x17D73, size: 0x8, addend: 0x0, symName: __ZNSt3__112basic_stringIcNS_11char_traitsIcEENS_9allocatorIcEEEC1B8ue170006EOS5_, symObjAddr: 0x13984, symBinAddr: 0x1000166E0, symSize: 0x34 }
  - { offsetInCU: 0x17DAC, offset: 0x17DAC, size: 0x8, addend: 0x0, symName: __ZNSt3__112basic_stringIcNS_11char_traitsIcEENS_9allocatorIcEEEC2B8ue170006EOS5_, symObjAddr: 0x139B8, symBinAddr: 0x100016714, symSize: 0x48 }
  - { offsetInCU: 0x17DEA, offset: 0x17DEA, size: 0x8, addend: 0x0, symName: __ZNSt3__119__to_address_helperINS_16reverse_iteratorIPNS_12basic_stringIcNS_11char_traitsIcEENS_9allocatorIcEEEEEEvE6__callB8ue170006ERKS9_, symObjAddr: 0x13A00, symBinAddr: 0x10001675C, symSize: 0x38 }
  - { offsetInCU: 0x17E0D, offset: 0x17E0D, size: 0x8, addend: 0x0, symName: __ZNKSt3__116reverse_iteratorIPNS_12basic_stringIcNS_11char_traitsIcEENS_9allocatorIcEEEEEptB8ue170006Ev, symObjAddr: 0x13A38, symBinAddr: 0x100016794, symSize: 0x24 }
  - { offsetInCU: 0x17E33, offset: 0x17E33, size: 0x8, addend: 0x0, symName: __ZNSt3__128__exception_guard_exceptionsINS_29_AllocatorDestroyRangeReverseINS_9allocatorINS_12basic_stringIcNS_11char_traitsIcEENS2_IcEEEEEENS_16reverse_iteratorIPS7_EEEEED2B8ue170006Ev, symObjAddr: 0x13A5C, symBinAddr: 0x1000167B8, symSize: 0x50 }
  - { offsetInCU: 0x17E5D, offset: 0x17E5D, size: 0x8, addend: 0x0, symName: __ZNKSt3__129_AllocatorDestroyRangeReverseINS_9allocatorINS_12basic_stringIcNS_11char_traitsIcEENS1_IcEEEEEENS_16reverse_iteratorIPS6_EEEclB8ue170006Ev, symObjAddr: 0x13AAC, symBinAddr: 0x100016808, symSize: 0xB4 }
  - { offsetInCU: 0x17E84, offset: 0x17E84, size: 0x8, addend: 0x0, symName: __ZNSt3__116reverse_iteratorINS0_IPNS_12basic_stringIcNS_11char_traitsIcEENS_9allocatorIcEEEEEEEC1B8ue170006ES8_, symObjAddr: 0x13BD0, symBinAddr: 0x10001692C, symSize: 0x3C }
  - { offsetInCU: 0x17EBC, offset: 0x17EBC, size: 0x8, addend: 0x0, symName: __ZNSt3__116reverse_iteratorINS0_IPNS_12basic_stringIcNS_11char_traitsIcEENS_9allocatorIcEEEEEEEppB8ue170006Ev, symObjAddr: 0x13C90, symBinAddr: 0x1000169EC, symSize: 0x30 }
  - { offsetInCU: 0x17EE2, offset: 0x17EE2, size: 0x8, addend: 0x0, symName: __ZNKSt3__116reverse_iteratorINS0_IPNS_12basic_stringIcNS_11char_traitsIcEENS_9allocatorIcEEEEEEE4baseB8ue170006Ev, symObjAddr: 0x13CC0, symBinAddr: 0x100016A1C, symSize: 0x24 }
  - { offsetInCU: 0x17F0D, offset: 0x17F0D, size: 0x8, addend: 0x0, symName: __ZNSt3__119__to_address_helperINS_16reverse_iteratorINS1_IPNS_12basic_stringIcNS_11char_traitsIcEENS_9allocatorIcEEEEEEEEvE6__callB8ue170006ERKSA_, symObjAddr: 0x13CE4, symBinAddr: 0x100016A40, symSize: 0x38 }
  - { offsetInCU: 0x17F30, offset: 0x17F30, size: 0x8, addend: 0x0, symName: __ZNKSt3__116reverse_iteratorINS0_IPNS_12basic_stringIcNS_11char_traitsIcEENS_9allocatorIcEEEEEEEptB8ue170006Ev, symObjAddr: 0x13D1C, symBinAddr: 0x100016A78, symSize: 0x24 }
  - { offsetInCU: 0x17F56, offset: 0x17F56, size: 0x8, addend: 0x0, symName: __ZNKSt3__116reverse_iteratorINS0_IPNS_12basic_stringIcNS_11char_traitsIcEENS_9allocatorIcEEEEEEEdeB8ue170006Ev, symObjAddr: 0x13D40, symBinAddr: 0x100016A9C, symSize: 0x34 }
  - { offsetInCU: 0x17F8A, offset: 0x17F8A, size: 0x8, addend: 0x0, symName: __ZNSt3__116reverse_iteratorIPNS_12basic_stringIcNS_11char_traitsIcEENS_9allocatorIcEEEEEmmB8ue170006Ev, symObjAddr: 0x13D74, symBinAddr: 0x100016AD0, symSize: 0x20 }
  - { offsetInCU: 0x17FB0, offset: 0x17FB0, size: 0x8, addend: 0x0, symName: __ZNSt3__116reverse_iteratorINS0_IPNS_12basic_stringIcNS_11char_traitsIcEENS_9allocatorIcEEEEEEEC2B8ue170006ES8_, symObjAddr: 0x13D94, symBinAddr: 0x100016AF0, symSize: 0x2C }
  - { offsetInCU: 0x17FE8, offset: 0x17FE8, size: 0x8, addend: 0x0, symName: __ZNSt3__116reverse_iteratorIPNS_12basic_stringIcNS_11char_traitsIcEENS_9allocatorIcEEEEEC2B8ue170006ES7_, symObjAddr: 0x13DC0, symBinAddr: 0x100016B1C, symSize: 0x28 }
  - { offsetInCU: 0x18020, offset: 0x18020, size: 0x8, addend: 0x0, symName: __ZNSt3__114__split_bufferINS_12basic_stringIcNS_11char_traitsIcEENS_9allocatorIcEEEERNS4_IS6_EEED2Ev, symObjAddr: 0x13DE8, symBinAddr: 0x100016B44, symSize: 0x8C }
  - { offsetInCU: 0x1804C, offset: 0x1804C, size: 0x8, addend: 0x0, symName: __ZNSt3__114__split_bufferINS_12basic_stringIcNS_11char_traitsIcEENS_9allocatorIcEEEERNS4_IS6_EEE5clearB8ue170006Ev, symObjAddr: 0x13E74, symBinAddr: 0x100016BD0, symSize: 0x28 }
  - { offsetInCU: 0x18072, offset: 0x18072, size: 0x8, addend: 0x0, symName: __ZNKSt3__114__split_bufferINS_12basic_stringIcNS_11char_traitsIcEENS_9allocatorIcEEEERNS4_IS6_EEE8capacityB8ue170006Ev, symObjAddr: 0x13E9C, symBinAddr: 0x100016BF8, symSize: 0x40 }
  - { offsetInCU: 0x18098, offset: 0x18098, size: 0x8, addend: 0x0, symName: __ZNSt3__114__split_bufferINS_12basic_stringIcNS_11char_traitsIcEENS_9allocatorIcEEEERNS4_IS6_EEE17__destruct_at_endB8ue170006EPS6_, symObjAddr: 0x13EDC, symBinAddr: 0x100016C38, symSize: 0x2C }
  - { offsetInCU: 0x180CC, offset: 0x180CC, size: 0x8, addend: 0x0, symName: __ZNSt3__114__split_bufferINS_12basic_stringIcNS_11char_traitsIcEENS_9allocatorIcEEEERNS4_IS6_EEE17__destruct_at_endB8ue170006EPS6_NS_17integral_constantIbLb0EEE, symObjAddr: 0x13F08, symBinAddr: 0x100016C64, symSize: 0x80 }
  - { offsetInCU: 0x1810C, offset: 0x1810C, size: 0x8, addend: 0x0, symName: __ZNKSt3__114__split_bufferINS_12basic_stringIcNS_11char_traitsIcEENS_9allocatorIcEEEERNS4_IS6_EEE9__end_capB8ue170006Ev, symObjAddr: 0x13F88, symBinAddr: 0x100016CE4, symSize: 0x28 }
  - { offsetInCU: 0x18132, offset: 0x18132, size: 0x8, addend: 0x0, symName: __ZNKSt3__117__compressed_pairIPNS_12basic_stringIcNS_11char_traitsIcEENS_9allocatorIcEEEERNS4_IS6_EEE5firstB8ue170006Ev, symObjAddr: 0x13FB0, symBinAddr: 0x100016D0C, symSize: 0x24 }
...
